	.file	"console.c"
	.option nopic
	.text
.Ltext0:
	.cfi_sections	.debug_frame
	.section	.rodata
	.align	2
	.type	vga_h800_v480_r60, @object
	.size	vga_h800_v480_r60, 32
vga_h800_v480_r60:
	.word	61
	.word	937
	.word	119
	.word	919
	.word	5
	.word	525
	.word	35
	.word	515
	.align	2
	.type	vga_h640_v480_r60, @object
	.size	vga_h640_v480_r60, 32
vga_h640_v480_r60:
	.word	96
	.word	800
	.word	112
	.word	752
	.word	2
	.word	525
	.word	12
	.word	492
	.align	2
	.type	vga_simRes, @object
	.size	vga_simRes, 32
vga_simRes:
	.word	8
	.word	70
	.word	16
	.word	64
	.word	2
	.word	48
	.word	8
	.word	40
	.align	2
	.type	vga_simRes_h160_v120, @object
	.size	vga_simRes_h160_v120, 32
vga_simRes_h160_v120:
	.word	8
	.word	184
	.word	16
	.word	176
	.word	2
	.word	130
	.word	6
	.word	126
	.section	.text.console_clear,"ax",@progbits
	.align	1
	.globl	console_clear
	.type	console_clear, @function
console_clear:
.LFB0:
	.file 1 "console.c"
	.loc 1 11 1
	.cfi_startproc
	addi	sp,sp,-32
	.cfi_def_cfa_offset 32
	sw	s0,28(sp)
	.cfi_offset 8, -4
	addi	s0,sp,32
	.cfi_def_cfa 8, 0
	.loc 1 13 8
	sw	zero,-20(s0)
	.loc 1 13 2
	j	.L2
.L3:
	.loc 1 14 36 discriminator 3
	lw	a5,-20(s0)
	slli	a4,a5,2
	li	a5,-268173312
	add	a5,a4,a5
	.loc 1 14 40 discriminator 3
	sw	zero,0(a5)
	.loc 1 13 34 discriminator 3
	lw	a5,-20(s0)
	addi	a5,a5,1
	sw	a5,-20(s0)
.L2:
	.loc 1 13 2 discriminator 1
	lw	a4,-20(s0)
	li	a5,1919
	bleu	a4,a5,.L3
	.loc 1 16 40
	li	a5,-268107776
	addi	a4,a5,132
	.loc 1 16 74
	li	a5,0
	sw	a5,0(a4)
	.loc 1 16 3
	li	a4,-268107776
	addi	a4,a4,128
	.loc 1 16 37
	sw	a5,0(a4)
	.loc 1 17 1
	nop
	lw	s0,28(sp)
	.cfi_restore 8
	addi	sp,sp,32
	.cfi_def_cfa_register 2
	jr	ra
	.cfi_endproc
.LFE0:
	.size	console_clear, .-console_clear
	.section	.text.console_scroll,"ax",@progbits
	.align	1
	.globl	console_scroll
	.type	console_scroll, @function
console_scroll:
.LFB1:
	.loc 1 20 1
	.cfi_startproc
	addi	sp,sp,-32
	.cfi_def_cfa_offset 32
	sw	s0,28(sp)
	.cfi_offset 8, -4
	addi	s0,sp,32
	.cfi_def_cfa 8, 0
	.loc 1 22 8
	sw	zero,-24(s0)
	.loc 1 22 2
	j	.L5
.L8:
	.loc 1 23 9
	sw	zero,-20(s0)
	.loc 1 23 3
	j	.L6
.L7:
	.loc 1 24 105 discriminator 3
	lw	a5,-24(s0)
	addi	a5,a5,1
	.loc 1 24 119 discriminator 3
	slli	a4,a5,7
	lw	a5,-20(s0)
	add	a5,a4,a5
	slli	a4,a5,2
	li	a5,-268173312
	add	a4,a4,a5
	.loc 1 24 40 discriminator 3
	lw	a5,-24(s0)
	.loc 1 24 55 discriminator 3
	slli	a3,a5,7
	lw	a5,-20(s0)
	add	a5,a3,a5
	slli	a3,a5,2
	li	a5,-268173312
	add	a5,a3,a5
	.loc 1 24 65 discriminator 3
	lw	a4,0(a4)
	.loc 1 24 62 discriminator 3
	sw	a4,0(a5)
	.loc 1 23 23 discriminator 3
	lw	a5,-20(s0)
	addi	a5,a5,1
	sw	a5,-20(s0)
.L6:
	.loc 1 23 3 discriminator 1
	lw	a4,-20(s0)
	li	a5,99
	ble	a4,a5,.L7
	.loc 1 22 25 discriminator 2
	lw	a5,-24(s0)
	addi	a5,a5,1
	sw	a5,-24(s0)
.L5:
	.loc 1 22 2 discriminator 1
	lw	a4,-24(s0)
	li	a5,13
	ble	a4,a5,.L8
	.loc 1 28 4
	li	a5,14
	sw	a5,-24(s0)
	.loc 1 29 8
	sw	zero,-20(s0)
	.loc 1 29 2
	j	.L9
.L10:
	.loc 1 30 39 discriminator 3
	lw	a5,-24(s0)
	.loc 1 30 54 discriminator 3
	slli	a4,a5,7
	lw	a5,-20(s0)
	add	a5,a4,a5
	slli	a4,a5,2
	li	a5,-268173312
	add	a5,a4,a5
	.loc 1 30 61 discriminator 3
	sw	zero,0(a5)
	.loc 1 29 22 discriminator 3
	lw	a5,-20(s0)
	addi	a5,a5,1
	sw	a5,-20(s0)
.L9:
	.loc 1 29 2 discriminator 1
	lw	a4,-20(s0)
	li	a5,99
	ble	a4,a5,.L10
	.loc 1 32 1
	nop
	lw	s0,28(sp)
	.cfi_restore 8
	addi	sp,sp,32
	.cfi_def_cfa_register 2
	jr	ra
	.cfi_endproc
.LFE1:
	.size	console_scroll, .-console_scroll
	.globl	escape_seq
	.section	.sbss,"aw",@nobits
	.align	2
	.type	escape_seq, @object
	.size	escape_seq, 4
escape_seq:
	.zero	4
	.globl	escape_digit
	.align	2
	.type	escape_digit, @object
	.size	escape_digit, 4
escape_digit:
	.zero	4
	.section	.text.debugout,"ax",@progbits
	.align	1
	.type	debugout, @function
debugout:
.LFB2:
	.loc 1 41 1
	.cfi_startproc
	addi	sp,sp,-32
	.cfi_def_cfa_offset 32
	sw	s0,28(sp)
	.cfi_offset 8, -4
	addi	s0,sp,32
	.cfi_def_cfa 8, 0
	mv	a5,a0
	sb	a5,-17(s0)
	.loc 1 42 42
	li	a5,-268107776
	addi	a5,a5,132
	lw	a5,0(a5)
	.loc 1 42 86
	slli	a3,a5,7
	.loc 1 42 89
	li	a5,-268107776
	addi	a4,a5,128
	lw	a5,0(a4)
	.loc 1 42 86
	addi	a2,a5,1
	sw	a2,0(a4)
	add	a5,a3,a5
	slli	a4,a5,2
	li	a5,-268173312
	add	a5,a4,a5
	.loc 1 42 128
	lbu	a4,-17(s0)
	sw	a4,0(a5)
	.loc 1 43 7
	li	a5,-268107776
	addi	a5,a5,128
	lw	a4,0(a5)
	.loc 1 43 5
	li	a5,99
	bleu	a4,a5,.L13
	.loc 1 44 38
	li	a5,-268107776
	addi	a5,a5,132
	lw	a4,0(a5)
	li	a5,-268107776
	addi	a5,a5,132
	addi	a4,a4,1
	sw	a4,0(a5)
	.loc 1 45 4
	li	a5,-268107776
	addi	a5,a5,128
	.loc 1 45 38
	sw	zero,0(a5)
.L13:
	.loc 1 47 1
	nop
	lw	s0,28(sp)
	.cfi_restore 8
	addi	sp,sp,32
	.cfi_def_cfa_register 2
	jr	ra
	.cfi_endproc
.LFE2:
	.size	debugout, .-debugout
	.globl	HEXA
	.data
	.align	2
	.type	HEXA, @object
	.size	HEXA, 17
HEXA:
	.string	"0123456789ABCDEF"
	.section	.text.debugouthex2,"ax",@progbits
	.align	1
	.type	debugouthex2, @function
debugouthex2:
.LFB3:
	.loc 1 53 1
	.cfi_startproc
	addi	sp,sp,-32
	.cfi_def_cfa_offset 32
	sw	ra,28(sp)
	sw	s0,24(sp)
	.cfi_offset 1, -4
	.cfi_offset 8, -8
	addi	s0,sp,32
	.cfi_def_cfa 8, 0
	mv	a5,a0
	sb	a5,-17(s0)
	.loc 1 54 2
	li	a0,91
	call	debugout
	.loc 1 55 27
	lbu	a5,-17(s0)
	srli	a5,a5,4
	andi	a5,a5,0xff
	mv	a4,a5
	.loc 1 55 15
	lui	a5,%hi(HEXA)
	addi	a5,a5,%lo(HEXA)
	add	a5,a4,a5
	lbu	a5,0(a5)
	.loc 1 55 2
	mv	a0,a5
	call	debugout
	.loc 1 56 19
	lbu	a5,-17(s0)
	andi	a4,a5,15
	.loc 1 56 15
	lui	a5,%hi(HEXA)
	addi	a5,a5,%lo(HEXA)
	add	a5,a4,a5
	lbu	a5,0(a5)
	.loc 1 56 2
	mv	a0,a5
	call	debugout
	.loc 1 57 2
	li	a0,93
	call	debugout
	.loc 1 58 1
	nop
	lw	ra,28(sp)
	.cfi_restore 1
	lw	s0,24(sp)
	.cfi_restore 8
	addi	sp,sp,32
	.cfi_def_cfa_register 2
	jr	ra
	.cfi_endproc
.LFE3:
	.size	debugouthex2, .-debugouthex2
	.section	.text.console_putc,"ax",@progbits
	.align	1
	.globl	console_putc
	.type	console_putc, @function
console_putc:
.LFB4:
	.loc 1 62 1
	.cfi_startproc
	addi	sp,sp,-48
	.cfi_def_cfa_offset 48
	sw	ra,44(sp)
	sw	s0,40(sp)
	.cfi_offset 1, -4
	.cfi_offset 8, -8
	addi	s0,sp,48
	.cfi_def_cfa 8, 0
	mv	a5,a0
	sb	a5,-33(s0)
	.loc 1 63 2
	lui	a5,%hi(escape_seq)
	lw	a5,%lo(escape_seq)(a5)
	li	a4,1
	beq	a5,a4,.L16
	li	a4,2
	beq	a5,a4,.L17
	j	.L40
.L16:
	.loc 1 66 9
	lbu	a5,-33(s0)
	li	a4,79
	beq	a5,a4,.L19
	li	a4,91
	bne	a5,a4,.L20
	.loc 1 68 28
	lui	a5,%hi(escape_seq)
	li	a4,2
	sw	a4,%lo(escape_seq)(a5)
	.loc 1 69 17
	j	.L21
.L19:
	.loc 1 71 28
	lui	a5,%hi(escape_seq)
	li	a4,4
	sw	a4,%lo(escape_seq)(a5)
	.loc 1 72 17
	j	.L21
.L20:
	.loc 1 74 28
	lui	a5,%hi(escape_seq)
	sw	zero,%lo(escape_seq)(a5)
	.loc 1 75 17
	nop
.L21:
	.loc 1 77 3
	j	.L22
.L17:
	.loc 1 79 20
	lui	a5,%hi(escape_seq)
	sw	zero,%lo(escape_seq)(a5)
	.loc 1 80 12
	lbu	a4,-33(s0)
	li	a5,47
	bleu	a4,a5,.L23
	.loc 1 80 22 discriminator 1
	lbu	a4,-33(s0)
	li	a5,57
	bgtu	a4,a5,.L23
	.loc 1 81 38
	lui	a5,%hi(escape_digit)
	lw	a4,%lo(escape_digit)(a5)
	mv	a5,a4
	slli	a5,a5,2
	add	a5,a5,a4
	slli	a5,a5,1
	mv	a4,a5
	.loc 1 81 43
	lbu	a5,-33(s0)
	add	a5,a4,a5
	addi	a4,a5,-48
	.loc 1 81 23
	lui	a5,%hi(escape_digit)
	sw	a4,%lo(escape_digit)(a5)
	.loc 1 82 24
	lui	a5,%hi(escape_seq)
	li	a4,2
	sw	a4,%lo(escape_seq)(a5)
	.loc 1 119 3
	j	.L41
.L23:
	.loc 1 84 16
	lbu	a4,-33(s0)
	li	a5,65
	beq	a4,a5,.L41
	.loc 1 86 23
	lbu	a4,-33(s0)
	li	a5,66
	beq	a4,a5,.L41
	.loc 1 88 23
	lbu	a4,-33(s0)
	li	a5,67
	beq	a4,a5,.L41
	.loc 1 90 23
	lbu	a4,-33(s0)
	li	a5,68
	bne	a4,a5,.L25
	.loc 1 92 31
	lui	a5,%hi(escape_digit)
	lw	a5,%lo(escape_digit)(a5)
	.loc 1 92 17
	bnez	a5,.L26
	.loc 1 93 44
	li	a5,-268107776
	addi	a5,a5,128
	lw	a4,0(a5)
	.loc 1 93 7
	li	a5,-268107776
	addi	a5,a5,128
	.loc 1 93 78
	addi	a4,a4,-1
	.loc 1 93 41
	sw	a4,0(a5)
	.loc 1 119 3
	j	.L41
.L26:
	.loc 1 95 11
	li	a5,-268107776
	addi	a5,a5,128
	lw	a4,0(a5)
	.loc 1 95 45
	lui	a5,%hi(escape_digit)
	lw	a5,%lo(escape_digit)(a5)
	.loc 1 95 9
	bleu	a4,a5,.L28
	.loc 1 96 45
	li	a5,-268107776
	addi	a5,a5,128
	lw	a3,0(a5)
	.loc 1 96 79
	lui	a5,%hi(escape_digit)
	lw	a4,%lo(escape_digit)(a5)
	.loc 1 96 8
	li	a5,-268107776
	addi	a5,a5,128
	.loc 1 96 79
	sub	a4,a3,a4
	.loc 1 96 42
	sw	a4,0(a5)
	.loc 1 119 3
	j	.L41
.L28:
	.loc 1 98 17
	li	a5,-268107776
	addi	a5,a5,128
	.loc 1 98 51
	sw	zero,0(a5)
	.loc 1 119 3
	j	.L41
.L25:
	.loc 1 101 23
	lbu	a4,-33(s0)
	li	a5,72
	beq	a4,a5,.L41
	.loc 1 103 23
	lbu	a4,-33(s0)
	li	a5,70
	beq	a4,a5,.L41
	.loc 1 105 23
	lbu	a4,-33(s0)
	li	a5,75
	bne	a4,a5,.L29
.LBB2:
	.loc 1 108 13
	li	a5,-268107776
	addi	a5,a5,128
	lw	a5,0(a5)
	.loc 1 108 11
	sw	a5,-20(s0)
	.loc 1 108 5
	j	.L30
.L31:
	.loc 1 109 46 discriminator 3
	li	a5,-268107776
	addi	a5,a5,132
	lw	a5,0(a5)
	.loc 1 109 90 discriminator 3
	slli	a4,a5,7
	lw	a5,-20(s0)
	add	a5,a4,a5
	slli	a4,a5,2
	li	a5,-268173312
	add	a5,a4,a5
	.loc 1 109 97 discriminator 3
	sw	zero,0(a5)
	.loc 1 108 58 discriminator 3
	lw	a5,-20(s0)
	addi	a5,a5,1
	sw	a5,-20(s0)
.L30:
	.loc 1 108 5 discriminator 1
	lw	a4,-20(s0)
	li	a5,99
	ble	a4,a5,.L31
.LBE2:
	.loc 1 119 3
	j	.L41
.L29:
	.loc 1 113 11
	li	a0,42
	call	debugout
	.loc 1 114 11
	li	a0,69
	call	debugout
	.loc 1 115 11
	li	a0,91
	call	debugout
	.loc 1 116 5
	lbu	a5,-33(s0)
	mv	a0,a5
	call	debugouthex2
	.loc 1 119 3
	j	.L41
.L40:
	.loc 1 122 6
	lbu	a4,-33(s0)
	li	a5,10
	bne	a4,a5,.L32
	.loc 1 123 39
	li	a5,-268107776
	addi	a5,a5,132
	lw	a4,0(a5)
	li	a5,-268107776
	addi	a5,a5,132
	addi	a4,a4,1
	sw	a4,0(a5)
	.loc 1 141 3
	j	.L42
.L32:
	.loc 1 124 13
	lbu	a4,-33(s0)
	li	a5,13
	bne	a4,a5,.L34
	.loc 1 125 5
	li	a5,-268107776
	addi	a5,a5,128
	.loc 1 125 39
	sw	zero,0(a5)
	.loc 1 141 3
	j	.L42
.L34:
	.loc 1 126 13
	lbu	a4,-33(s0)
	li	a5,8
	bne	a4,a5,.L35
	.loc 1 127 9
	li	a5,-268107776
	addi	a5,a5,128
	lw	a5,0(a5)
	.loc 1 127 7
	beqz	a5,.L42
	.loc 1 127 45 discriminator 1
	li	a5,-268107776
	addi	a5,a5,128
	lw	a4,0(a5)
	.loc 1 127 78 discriminator 1
	addi	a4,a4,-1
	sw	a4,0(a5)
	.loc 1 141 3 discriminator 1
	j	.L42
.L35:
	.loc 1 128 13
	lbu	a4,-33(s0)
	li	a5,27
	bne	a4,a5,.L37
	.loc 1 129 17
	lui	a5,%hi(escape_digit)
	sw	zero,%lo(escape_digit)(a5)
	.loc 1 130 15
	lui	a5,%hi(escape_seq)
	li	a4,1
	sw	a4,%lo(escape_seq)(a5)
	.loc 1 141 3
	j	.L42
.L37:
	.loc 1 131 13
	lbu	a4,-33(s0)
	li	a5,31
	bgtu	a4,a5,.L38
	.loc 1 132 4
	lbu	a5,-33(s0)
	mv	a0,a5
	call	debugouthex2
	.loc 1 141 3
	j	.L42
.L38:
	.loc 1 134 44
	li	a5,-268107776
	addi	a5,a5,132
	lw	a5,0(a5)
	.loc 1 134 88
	slli	a4,a5,7
	li	a5,-268107776
	addi	a5,a5,128
	lw	a5,0(a5)
	add	a5,a4,a5
	slli	a4,a5,2
	li	a5,-268173312
	add	a5,a4,a5
	.loc 1 134 128
	lbu	a4,-33(s0)
	sw	a4,0(a5)
	.loc 1 135 5
	li	a5,-268107776
	addi	a5,a5,128
	lw	a4,0(a5)
	.loc 1 135 38
	addi	a4,a4,1
	sw	a4,0(a5)
	.loc 1 136 9
	li	a5,-268107776
	addi	a5,a5,128
	lw	a4,0(a5)
	.loc 1 136 7
	li	a5,99
	bleu	a4,a5,.L42
	.loc 1 137 40
	li	a5,-268107776
	addi	a5,a5,132
	lw	a4,0(a5)
	li	a5,-268107776
	addi	a5,a5,132
	addi	a4,a4,1
	sw	a4,0(a5)
	.loc 1 138 6
	li	a5,-268107776
	addi	a5,a5,128
	.loc 1 138 40
	sw	zero,0(a5)
	.loc 1 141 3
	j	.L42
.L41:
	.loc 1 119 3
	nop
	j	.L22
.L42:
	.loc 1 141 3
	nop
.L22:
	.loc 1 144 7
	li	a5,-268107776
	addi	a5,a5,132
	lw	a4,0(a5)
	.loc 1 144 5
	li	a5,14
	bleu	a4,a5,.L43
	.loc 1 145 3
	call	console_scroll
	.loc 1 146 4
	li	a5,-268107776
	addi	a5,a5,132
	lw	a4,0(a5)
	.loc 1 146 37
	addi	a4,a4,-1
	sw	a4,0(a5)
.L43:
	.loc 1 148 1
	nop
	lw	ra,44(sp)
	.cfi_restore 1
	lw	s0,40(sp)
	.cfi_restore 8
	addi	sp,sp,48
	.cfi_def_cfa_register 2
	jr	ra
	.cfi_endproc
.LFE4:
	.size	console_putc, .-console_putc
	.section	.text.console_puts,"ax",@progbits
	.align	1
	.globl	console_puts
	.type	console_puts, @function
console_puts:
.LFB5:
	.loc 1 152 1
	.cfi_startproc
	addi	sp,sp,-48
	.cfi_def_cfa_offset 48
	sw	ra,44(sp)
	sw	s0,40(sp)
	.cfi_offset 1, -4
	.cfi_offset 8, -8
	addi	s0,sp,48
	.cfi_def_cfa 8, 0
	sw	a0,-36(s0)
	.loc 1 154 8
	sw	zero,-20(s0)
	.loc 1 154 2
	j	.L45
.L48:
	.loc 1 155 7
	lw	a5,-36(s0)
	lbu	a5,0(a5)
	.loc 1 155 6
	beqz	a5,.L49
	.loc 1 156 3 discriminator 2
	lw	a5,-36(s0)
	lbu	a5,0(a5)
	mv	a0,a5
	call	console_putc
	.loc 1 154 20 discriminator 2
	lw	a5,-20(s0)
	addi	a5,a5,1
	sw	a5,-20(s0)
	.loc 1 154 24 discriminator 2
	lw	a5,-36(s0)
	addi	a5,a5,1
	sw	a5,-36(s0)
.L45:
	.loc 1 154 2 discriminator 1
	lw	a4,-20(s0)
	li	a5,255
	ble	a4,a5,.L48
	j	.L44
.L49:
	.loc 1 155 19
	nop
.L44:
	.loc 1 158 1
	lw	ra,44(sp)
	.cfi_restore 1
	lw	s0,40(sp)
	.cfi_restore 8
	addi	sp,sp,48
	.cfi_def_cfa_register 2
	jr	ra
	.cfi_endproc
.LFE5:
	.size	console_puts, .-console_puts
	.text
.Letext0:
	.file 2 "c:\\gccriscv\\8.2.0\\riscv-none-embed\\include\\machine\\_default_types.h"
	.file 3 "c:\\gccriscv\\8.2.0\\riscv-none-embed\\include\\sys\\_stdint.h"
	.file 4 "murax.h"