	.file	"deb.c"
	.option nopic
	.text
.Ltext0:
	.cfi_sections	.debug_frame
	.section	.rodata
	.align	2
	.type	vga_h800_v480_r60, @object
	.size	vga_h800_v480_r60, 32
vga_h800_v480_r60:
	.word	61
	.word	937
	.word	119
	.word	919
	.word	5
	.word	525
	.word	35
	.word	515
	.align	2
	.type	vga_h640_v480_r60, @object
	.size	vga_h640_v480_r60, 32
vga_h640_v480_r60:
	.word	96
	.word	800
	.word	112
	.word	752
	.word	2
	.word	525
	.word	12
	.word	492
	.align	2
	.type	vga_simRes, @object
	.size	vga_simRes, 32
vga_simRes:
	.word	8
	.word	70
	.word	16
	.word	64
	.word	2
	.word	48
	.word	8
	.word	40
	.align	2
	.type	vga_simRes_h160_v120, @object
	.size	vga_simRes_h160_v120, 32
vga_simRes_h160_v120:
	.word	8
	.word	184
	.word	16
	.word	176
	.word	2
	.word	130
	.word	6
	.word	126
	.section	.text.getcon,"ax",@progbits
	.align	1
	.globl	getcon
	.type	getcon, @function
getcon:
.LFB0:
	.file 1 "deb.c"
	.loc 1 14 15
	.cfi_startproc
	addi	sp,sp,-32
	.cfi_def_cfa_offset 32
	sw	ra,28(sp)
	sw	s0,24(sp)
	.cfi_offset 1, -4
	.cfi_offset 8, -8
	addi	s0,sp,32
	.cfi_def_cfa 8, 0
	.loc 1 16 8
	nop
.L2:
	.loc 1 16 14 discriminator 1
	li	a0,-268369920
	call	uart_read
	sw	a0,-20(s0)
	.loc 1 16 8 discriminator 1
	lw	a5,-20(s0)
	bltz	a5,.L2
	.loc 1 18 9
	lw	a5,-20(s0)
	andi	a5,a5,0xff
	.loc 1 19 1
	mv	a0,a5
	lw	ra,28(sp)
	.cfi_restore 1
	lw	s0,24(sp)
	.cfi_restore 8
	addi	sp,sp,32
	.cfi_def_cfa_register 2
	jr	ra
	.cfi_endproc
.LFE0:
	.size	getcon, .-getcon
	.section	.text.consts,"ax",@progbits
	.align	1
	.globl	consts
	.type	consts, @function
consts:
.LFB1:
	.loc 1 22 1
	.cfi_startproc
	addi	sp,sp,-16
	.cfi_def_cfa_offset 16
	sw	ra,12(sp)
	sw	s0,8(sp)
	.cfi_offset 1, -4
	.cfi_offset 8, -8
	addi	s0,sp,16
	.cfi_def_cfa 8, 0
	.loc 1 23 10
	li	a0,-268369920
	call	uart_readOccupancy
	mv	a5,a0
	.loc 1 24 1
	mv	a0,a5
	lw	ra,12(sp)
	.cfi_restore 1
	lw	s0,8(sp)
	.cfi_restore 8
	addi	sp,sp,16
	.cfi_def_cfa_register 2
	jr	ra
	.cfi_endproc
.LFE1:
	.size	consts, .-consts
	.comm	col,4,4
	.comm	line,80,4
	.comm	lp,4,4
	.comm	datap,4,4
	.comm	codep,4,4
	.section	.text.putch,"ax",@progbits
	.align	1
	.globl	putch
	.type	putch, @function
putch:
.LFB2:
	.loc 1 31 1
	.cfi_startproc
	addi	sp,sp,-32
	.cfi_def_cfa_offset 32
	sw	ra,28(sp)
	sw	s0,24(sp)
	.cfi_offset 1, -4
	.cfi_offset 8, -8
	addi	s0,sp,32
	.cfi_def_cfa 8, 0
	mv	a5,a0
	sb	a5,-17(s0)
	.loc 1 32 5
	lbu	a4,-17(s0)
	li	a5,13
	bne	a4,a5,.L7
	.loc 1 33 7
	lui	a5,%hi(col)
	sw	zero,%lo(col)(a5)
.L7:
	.loc 1 34 5
	lbu	a4,-17(s0)
	li	a5,31
	bleu	a4,a5,.L8
	.loc 1 35 6
	lui	a5,%hi(col)
	lw	a5,%lo(col)(a5)
	addi	a4,a5,1
	lui	a5,%hi(col)
	sw	a4,%lo(col)(a5)
.L8:
	.loc 1 36 2
	lbu	a5,-17(s0)
	mv	a0,a5
	call	putcon
	.loc 1 37 1
	nop
	lw	ra,28(sp)
	.cfi_restore 1
	lw	s0,24(sp)
	.cfi_restore 8
	addi	sp,sp,32
	.cfi_def_cfa_register 2
	jr	ra
	.cfi_endproc
.LFE2:
	.size	putch, .-putch
	.section	.text.putcrlf,"ax",@progbits
	.align	1
	.globl	putcrlf
	.type	putcrlf, @function
putcrlf:
.LFB3:
	.loc 1 42 1
	.cfi_startproc
	addi	sp,sp,-16
	.cfi_def_cfa_offset 16
	sw	ra,12(sp)
	sw	s0,8(sp)
	.cfi_offset 1, -4
	.cfi_offset 8, -8
	addi	s0,sp,16
	.cfi_def_cfa 8, 0
	.loc 1 43 2
	li	a0,13
	call	putch
	.loc 1 44 2
	li	a0,10
	call	putch
	.loc 1 45 1
	nop
	lw	ra,12(sp)
	.cfi_restore 1
	lw	s0,8(sp)
	.cfi_restore 8
	addi	sp,sp,16
	.cfi_def_cfa_register 2
	jr	ra
	.cfi_endproc
.LFE3:
	.size	putcrlf, .-putcrlf
	.section	.text.putback,"ax",@progbits
	.align	1
	.globl	putback
	.type	putback, @function
putback:
.LFB4:
	.loc 1 48 1
	.cfi_startproc
	addi	sp,sp,-16
	.cfi_def_cfa_offset 16
	sw	ra,12(sp)
	sw	s0,8(sp)
	.cfi_offset 1, -4
	.cfi_offset 8, -8
	addi	s0,sp,16
	.cfi_def_cfa 8, 0
	.loc 1 49 2
	li	a0,8
	call	putch
	.loc 1 49 15
	li	a0,32
	call	putch
	.loc 1 49 27
	li	a0,8
	call	putch
	.loc 1 50 1
	nop
	lw	ra,12(sp)
	.cfi_restore 1
	lw	s0,8(sp)
	.cfi_restore 8
	addi	sp,sp,16
	.cfi_def_cfa_register 2
	jr	ra
	.cfi_endproc
.LFE4:
	.size	putback, .-putback
	.section	.text._error,"ax",@progbits
	.align	1
	.globl	_error
	.type	_error, @function
_error:
.LFB5:
	.loc 1 54 15
	.cfi_startproc
	addi	sp,sp,-16
	.cfi_def_cfa_offset 16
	sw	ra,12(sp)
	sw	s0,8(sp)
	.cfi_offset 1, -4
	.cfi_offset 8, -8
	addi	s0,sp,16
	.cfi_def_cfa 8, 0
	.loc 1 54 19
	call	putcrlf
	.loc 1 54 30
	li	a0,63
	call	putch
	.loc 1 54 42
	nop
	.loc 1 54 1
	lw	ra,12(sp)
	.cfi_restore 1
	lw	s0,8(sp)
	.cfi_restore 8
	addi	sp,sp,16
	.cfi_def_cfa_register 2
	jr	ra
	.cfi_endproc
.LFE5:
	.size	_error, .-_error
	.section	.text.getline,"ax",@progbits
	.align	1
	.globl	getline
	.type	getline, @function
getline:
.LFB6:
	.loc 1 57 1
	.cfi_startproc
	addi	sp,sp,-32
	.cfi_def_cfa_offset 32
	sw	ra,28(sp)
	sw	s0,24(sp)
	.cfi_offset 1, -4
	.cfi_offset 8, -8
	addi	s0,sp,32
	.cfi_def_cfa 8, 0
	.loc 1 61 9
	lui	a5,%hi(lp)
	lui	a4,%hi(line)
	addi	a4,a4,%lo(line)
	sw	a4,%lo(lp)(a5)
	.loc 1 61 4
	lui	a5,%hi(lp)
	lw	a5,%lo(lp)(a5)
	sw	a5,-20(s0)
	.loc 1 62 5
	sw	zero,-24(s0)
.L26:
	.loc 1 64 15
	call	getcon
	mv	a5,a0
	sb	a5,-25(s0)
	.loc 1 64 13
	lbu	a5,-25(s0)
	li	a4,10
	beq	a5,a4,.L14
	li	a4,10
	bgt	a5,a4,.L15
	li	a4,8
	beq	a5,a4,.L16
	j	.L17
.L15:
	li	a4,13
	beq	a5,a4,.L14
	li	a4,24
	beq	a5,a4,.L18
	j	.L17
.L16:
	.loc 1 66 7
	lw	a5,-24(s0)
	beqz	a5,.L28
	.loc 1 67 6
	lw	a5,-20(s0)
	addi	a5,a5,-1
	sw	a5,-20(s0)
	.loc 1 68 7
	lw	a5,-24(s0)
	addi	a5,a5,-1
	sw	a5,-24(s0)
	.loc 1 69 5
	call	putback
	.loc 1 71 4
	j	.L28
.L14:
	.loc 1 73 7
	lw	a5,-20(s0)
	sb	zero,0(a5)
	.loc 1 75 4
	j	.L27
.L18:
	.loc 1 77 6
	lui	a5,%hi(line)
	addi	a5,a5,%lo(line)
	sw	a5,-20(s0)
	.loc 1 78 4
	j	.L22
.L23:
	.loc 1 79 5 discriminator 2
	call	putback
	.loc 1 78 22 discriminator 2
	lw	a5,-24(s0)
	addi	a5,a5,-1
	sw	a5,-24(s0)
.L22:
	.loc 1 78 4 discriminator 1
	lw	a5,-24(s0)
	bnez	a5,.L23
	.loc 1 80 4
	j	.L20
.L17:
	.loc 1 82 7
	lbu	a4,-25(s0)
	li	a5,31
	bleu	a4,a5,.L26
.LBB2:
	.loc 1 83 13
	lbu	a5,-25(s0)
	sb	a5,-26(s0)
	.loc 1 83 19
	call	__locale_ctype_ptr
	mv	a4,a0
	.loc 1 83 59
	lbu	a5,-26(s0)
	.loc 1 83 58
	addi	a5,a5,1
	add	a5,a4,a5
	lbu	a5,0(a5)
	.loc 1 83 71
	andi	a4,a5,3
	.loc 1 83 110
	li	a5,2
	bne	a4,a5,.L24
	.loc 1 83 88 discriminator 1
	lbu	a5,-26(s0)
	.loc 1 83 110 discriminator 1
	addi	a4,a5,-32
	j	.L25
.L24:
	.loc 1 83 110 is_stmt 0 discriminator 2
	lbu	a4,-26(s0)
.L25:
.LBE2:
	.loc 1 83 7 is_stmt 1 discriminator 4
	lw	a5,-20(s0)
	addi	a3,a5,1
	sw	a3,-20(s0)
	.loc 1 83 10 discriminator 4
	andi	a4,a4,0xff
	sb	a4,0(a5)
	.loc 1 84 7 discriminator 4
	lw	a5,-24(s0)
	addi	a5,a5,1
	sw	a5,-24(s0)
	.loc 1 85 5 discriminator 4
	lbu	a5,-25(s0)
	mv	a0,a5
	call	putch
	j	.L26
.L28:
	.loc 1 71 4
	nop
.L20:
	.loc 1 64 3 discriminator 1
	j	.L26
.L27:
	.loc 1 89 1
	lw	ra,28(sp)
	.cfi_restore 1
	lw	s0,24(sp)
	.cfi_restore 8
	addi	sp,sp,32
	.cfi_def_cfa_register 2
	jr	ra
	.cfi_endproc
.LFE6:
	.size	getline, .-getline
	.section	.text.inhex,"ax",@progbits
	.align	1
	.globl	inhex
	.type	inhex, @function
inhex:
.LFB7:
	.loc 1 92 1
	.cfi_startproc
	addi	sp,sp,-32
	.cfi_def_cfa_offset 32
	sw	s0,28(sp)
	.cfi_offset 8, -4
	addi	s0,sp,32
	.cfi_def_cfa 8, 0
	mv	a5,a0
	sb	a5,-17(s0)
	.loc 1 93 4
	lbu	a5,-17(s0)
	addi	a5,a5,-48
	sb	a5,-17(s0)
	.loc 1 94 5
	lbu	a4,-17(s0)
	li	a5,9
	bgtu	a4,a5,.L30
	.loc 1 94 21 discriminator 1
	lbu	a5,-17(s0)
	j	.L31
.L30:
	.loc 1 95 4
	lbu	a5,-17(s0)
	addi	a5,a5,-7
	sb	a5,-17(s0)
	.loc 1 96 5
	lbu	a4,-17(s0)
	li	a5,9
	bleu	a4,a5,.L32
	.loc 1 96 16 discriminator 1
	lbu	a4,-17(s0)
	li	a5,15
	bgtu	a4,a5,.L32
	.loc 1 96 37 discriminator 2
	lbu	a5,-17(s0)
	j	.L31
.L32:
	.loc 1 97 9
	li	a5,-1
.L31:
	.loc 1 98 1
	mv	a0,a5
	lw	s0,28(sp)
	.cfi_restore 8
	addi	sp,sp,32
	.cfi_def_cfa_register 2
	jr	ra
	.cfi_endproc
.LFE7:
	.size	inhex, .-inhex
	.section	.text.gethex,"ax",@progbits
	.align	1
	.globl	gethex
	.type	gethex, @function
gethex:
.LFB8:
	.loc 1 101 1
	.cfi_startproc
	addi	sp,sp,-32
	.cfi_def_cfa_offset 32
	sw	ra,28(sp)
	sw	s0,24(sp)
	.cfi_offset 1, -4
	.cfi_offset 8, -8
	addi	s0,sp,32
	.cfi_def_cfa 8, 0
	.loc 1 105 4
	sw	zero,-20(s0)
	.loc 1 106 2
	j	.L34
.L35:
	.loc 1 107 9 discriminator 2
	lw	a5,-20(s0)
	slli	a4,a5,4
	.loc 1 107 14 discriminator 2
	lw	a5,-24(s0)
	.loc 1 107 5 discriminator 2
	add	a5,a4,a5
	sw	a5,-20(s0)
	.loc 1 106 35 discriminator 2
	lui	a5,%hi(lp)
	lw	a5,%lo(lp)(a5)
	addi	a4,a5,1
	lui	a5,%hi(lp)
	sw	a4,%lo(lp)(a5)
.L34:
	.loc 1 106 14 discriminator 1
	lui	a5,%hi(lp)
	lw	a5,%lo(lp)(a5)
	lbu	a5,0(a5)
	mv	a0,a5
	call	inhex
	sw	a0,-24(s0)
	.loc 1 106 2 discriminator 1
	lw	a4,-24(s0)
	li	a5,-1
	bne	a4,a5,.L35
	.loc 1 108 9
	lw	a5,-20(s0)
	.loc 1 109 1
	mv	a0,a5
	lw	ra,28(sp)
	.cfi_restore 1
	lw	s0,24(sp)
	.cfi_restore 8
	addi	sp,sp,32
	.cfi_def_cfa_register 2
	jr	ra
	.cfi_endproc
.LFE8:
	.size	gethex, .-gethex
	.section	.text.getdata,"ax",@progbits
	.align	1
	.globl	getdata
	.type	getdata, @function
getdata:
.LFB9:
	.loc 1 114 1
	.cfi_startproc
	addi	sp,sp,-16
	.cfi_def_cfa_offset 16
	sw	ra,12(sp)
	sw	s0,8(sp)
	.cfi_offset 1, -4
	.cfi_offset 8, -8
	addi	s0,sp,16
	.cfi_def_cfa 8, 0
	.loc 1 115 6
	lui	a5,%hi(lp)
	lw	a5,%lo(lp)(a5)
	lbu	a5,0(a5)
	mv	a0,a5
	call	inhex
	mv	a4,a0
	.loc 1 115 5
	li	a5,-1
	bne	a4,a5,.L38
	.loc 1 116 10
	li	a5,0
	j	.L39
.L38:
	.loc 1 117 10
	call	gethex
	mv	a5,a0
.L39:
	.loc 1 118 1
	mv	a0,a5
	lw	ra,12(sp)
	.cfi_restore 1
	lw	s0,8(sp)
	.cfi_restore 8
	addi	sp,sp,16
	.cfi_def_cfa_register 2
	jr	ra
	.cfi_endproc
.LFE9:
	.size	getdata, .-getdata
	.section	.text.ogetdata,"ax",@progbits
	.align	1
	.globl	ogetdata
	.type	ogetdata, @function
ogetdata:
.LFB10:
	.loc 1 123 1
	.cfi_startproc
	addi	sp,sp,-32
	.cfi_def_cfa_offset 32
	sw	ra,28(sp)
	sw	s0,24(sp)
	.cfi_offset 1, -4
	.cfi_offset 8, -8
	addi	s0,sp,32
	.cfi_def_cfa 8, 0
	sw	a0,-20(s0)
	.loc 1 124 9
	lui	a5,%hi(lp)
	lw	a5,%lo(lp)(a5)
	lbu	a5,0(a5)
	beqz	a5,.L41
	li	a4,44
	bne	a5,a4,.L42
.L41:
	.loc 1 127 10
	lw	a5,-20(s0)
	j	.L43
.L42:
	.loc 1 129 11
	call	getdata
	mv	a5,a0
.L43:
	.loc 1 131 1
	mv	a0,a5
	lw	ra,28(sp)
	.cfi_restore 1
	lw	s0,24(sp)
	.cfi_restore 8
	addi	sp,sp,32
	.cfi_def_cfa_register 2
	jr	ra
	.cfi_endproc
.LFE10:
	.size	ogetdata, .-ogetdata
	.section	.text.puthex,"ax",@progbits
	.align	1
	.globl	puthex
	.type	puthex, @function
puthex:
.LFB11:
	.loc 1 142 1
	.cfi_startproc
	addi	sp,sp,-32
	.cfi_def_cfa_offset 32
	sw	ra,28(sp)
	sw	s0,24(sp)
	.cfi_offset 1, -4
	.cfi_offset 8, -8
	addi	s0,sp,32
	.cfi_def_cfa 8, 0
	sw	a0,-20(s0)
	.loc 1 143 2
	lw	a4,-20(s0)
	li	a5,9
	bgtu	a4,a5,.L45
	.loc 1 143 19 discriminator 1
	lw	a5,-20(s0)
	andi	a5,a5,0xff
	.loc 1 143 2 discriminator 1
	addi	a5,a5,48
	andi	a5,a5,0xff
	j	.L46
.L45:
	.loc 1 143 35 discriminator 2
	lw	a5,-20(s0)
	andi	a5,a5,0xff
	.loc 1 143 2 discriminator 2
	addi	a5,a5,55
	andi	a5,a5,0xff
.L46:
	.loc 1 143 2 is_stmt 0 discriminator 4
	mv	a0,a5
	call	putch
	.loc 1 144 1 is_stmt 1 discriminator 4
	nop
	lw	ra,28(sp)
	.cfi_restore 1
	lw	s0,24(sp)
	.cfi_restore 8
	addi	sp,sp,32
	.cfi_def_cfa_register 2
	jr	ra
	.cfi_endproc
.LFE11:
	.size	puthex, .-puthex
	.section	.text.puthxb,"ax",@progbits
	.align	1
	.globl	puthxb
	.type	puthxb, @function
puthxb:
.LFB12:
	.loc 1 147 1
	.cfi_startproc
	addi	sp,sp,-32
	.cfi_def_cfa_offset 32
	sw	ra,28(sp)
	sw	s0,24(sp)
	.cfi_offset 1, -4
	.cfi_offset 8, -8
	addi	s0,sp,32
	.cfi_def_cfa 8, 0
	sw	a0,-20(s0)
	.loc 1 148 12
	lw	a5,-20(s0)
	srli	a5,a5,4
	.loc 1 148 2
	andi	a5,a5,15
	mv	a0,a5
	call	puthex
	.loc 1 149 2
	lw	a5,-20(s0)
	andi	a5,a5,15
	mv	a0,a5
	call	puthex
	.loc 1 150 1
	nop
	lw	ra,28(sp)
	.cfi_restore 1
	lw	s0,24(sp)
	.cfi_restore 8
	addi	sp,sp,32
	.cfi_def_cfa_register 2
	jr	ra
	.cfi_endproc
.LFE12:
	.size	puthxb, .-puthxb
	.section	.text.puthxw,"ax",@progbits
	.align	1
	.globl	puthxw
	.type	puthxw, @function
puthxw:
.LFB13:
	.loc 1 153 1
	.cfi_startproc
	addi	sp,sp,-32
	.cfi_def_cfa_offset 32
	sw	ra,28(sp)
	sw	s0,24(sp)
	.cfi_offset 1, -4
	.cfi_offset 8, -8
	addi	s0,sp,32
	.cfi_def_cfa 8, 0
	sw	a0,-20(s0)
	.loc 1 154 12
	lw	a5,-20(s0)
	srli	a5,a5,8
	.loc 1 154 2
	andi	a5,a5,255
	mv	a0,a5
	call	puthxb
	.loc 1 155 2
	lw	a5,-20(s0)
	andi	a5,a5,255
	mv	a0,a5
	call	puthxb
	.loc 1 156 1
	nop
	lw	ra,28(sp)
	.cfi_restore 1
	lw	s0,24(sp)
	.cfi_restore 8
	addi	sp,sp,32
	.cfi_def_cfa_register 2
	jr	ra
	.cfi_endproc
.LFE13:
	.size	puthxw, .-puthxw
	.section	.text.puthxww,"ax",@progbits
	.align	1
	.globl	puthxww
	.type	puthxww, @function
puthxww:
.LFB14:
	.loc 1 159 1
	.cfi_startproc
	addi	sp,sp,-32
	.cfi_def_cfa_offset 32
	sw	ra,28(sp)
	sw	s0,24(sp)
	.cfi_offset 1, -4
	.cfi_offset 8, -8
	addi	s0,sp,32
	.cfi_def_cfa 8, 0
	sw	a0,-20(s0)
	.loc 1 160 12
	lw	a5,-20(s0)
	srli	a5,a5,24
	.loc 1 160 2
	mv	a0,a5
	call	puthxb
	.loc 1 161 12
	lw	a5,-20(s0)
	srli	a5,a5,16
	.loc 1 161 2
	andi	a5,a5,255
	mv	a0,a5
	call	puthxb
	.loc 1 162 12
	lw	a5,-20(s0)
	srli	a5,a5,8
	.loc 1 162 2
	andi	a5,a5,255
	mv	a0,a5
	call	puthxb
	.loc 1 163 2
	lw	a5,-20(s0)
	andi	a5,a5,255
	mv	a0,a5
	call	puthxb
	.loc 1 164 1
	nop
	lw	ra,28(sp)
	.cfi_restore 1
	lw	s0,24(sp)
	.cfi_restore 8
	addi	sp,sp,32
	.cfi_def_cfa_register 2
	jr	ra
	.cfi_endproc
.LFE14:
	.size	puthxww, .-puthxww
	.section	.text.comma,"ax",@progbits
	.align	1
	.globl	comma
	.type	comma, @function
comma:
.LFB15:
	.loc 1 167 1
	.cfi_startproc
	addi	sp,sp,-32
	.cfi_def_cfa_offset 32
	sw	s0,28(sp)
	.cfi_offset 8, -4
	addi	s0,sp,32
	.cfi_def_cfa 8, 0
	sw	a0,-20(s0)
	.loc 1 168 8
	nop
.L52:
	.loc 1 168 9 discriminator 2
	lw	a5,-20(s0)
	lbu	a5,0(a5)
	.loc 1 168 8 discriminator 2
	beqz	a5,.L51
	.loc 1 168 17 discriminator 1
	lw	a5,-20(s0)
	addi	a4,a5,1
	sw	a4,-20(s0)
	.loc 1 168 15 discriminator 1
	lbu	a4,0(a5)
	.loc 1 168 12 discriminator 1
	li	a5,44
	bne	a4,a5,.L52
.L51:
	.loc 1 170 9
	lw	a5,-20(s0)
	.loc 1 171 1
	mv	a0,a5
	lw	s0,28(sp)
	.cfi_restore 8
	addi	sp,sp,32
	.cfi_def_cfa_register 2
	jr	ra
	.cfi_endproc
.LFE15:
	.size	comma, .-comma
	.section	.text.xdump,"ax",@progbits
	.align	1
	.globl	xdump
	.type	xdump, @function
xdump:
.LFB16:
	.loc 1 174 1
	.cfi_startproc
	addi	sp,sp,-48
	.cfi_def_cfa_offset 48
	sw	ra,44(sp)
	sw	s0,40(sp)
	.cfi_offset 1, -4
	.cfi_offset 8, -8
	addi	s0,sp,48
	.cfi_def_cfa 8, 0
	.loc 1 179 18
	lui	a5,%hi(datap)
	lw	a5,%lo(datap)(a5)
	mv	a0,a5
	call	ogetdata
	mv	a5,a0
	.loc 1 179 7
	sw	a5,-28(s0)
	.loc 1 180 8
	lw	a5,-28(s0)
	.loc 1 180 24
	srli	a5,a5,28
	.loc 1 180 5
	bnez	a5,.L55
	.loc 1 181 19
	lw	a4,-28(s0)
	.loc 1 181 34
	li	a5,-2147483648
	add	a5,a4,a5
	.loc 1 181 8
	sw	a5,-28(s0)
.L55:
	.loc 1 183 8
	lui	a5,%hi(lp)
	lw	a5,%lo(lp)(a5)
	lbu	a5,0(a5)
	.loc 1 183 7
	beqz	a5,.L56
	.loc 1 183 26 discriminator 1
	lui	a5,%hi(lp)
	lw	a5,%lo(lp)(a5)
	addi	a3,a5,1
	lui	a4,%hi(lp)
	sw	a3,%lo(lp)(a4)
	.loc 1 183 23 discriminator 1
	lbu	a4,0(a5)
	.loc 1 183 20 discriminator 1
	li	a5,44
	bne	a4,a5,.L68
.L56:
	.loc 1 184 25
	lw	a5,-28(s0)
	.loc 1 184 16
	addi	a5,a5,127
	mv	a0,a5
	call	ogetdata
	mv	a5,a0
	.loc 1 184 5
	sw	a5,-32(s0)
	.loc 1 185 8
	lw	a5,-32(s0)
	.loc 1 185 22
	srli	a5,a5,28
	.loc 1 185 5
	bnez	a5,.L58
	.loc 1 186 17
	lw	a4,-32(s0)
	.loc 1 186 30
	li	a5,-2147483648
	add	a5,a4,a5
	.loc 1 186 6
	sw	a5,-32(s0)
.L58:
	.loc 1 188 8
	lui	a5,%hi(lp)
	lw	a5,%lo(lp)(a5)
	lbu	a5,0(a5)
	.loc 1 188 7
	bnez	a5,.L69
	.loc 1 189 9
	lw	a5,-28(s0)
	sw	a5,-20(s0)
	.loc 1 189 2
	j	.L60
.L67:
	.loc 1 190 9
	call	consts
	mv	a5,a0
	.loc 1 190 8
	beqz	a5,.L61
	.loc 1 190 21 discriminator 1
	call	getcon
	.loc 1 190 31 discriminator 1
	j	.L54
.L61:
	.loc 1 191 3
	call	putcrlf
	.loc 1 192 3
	lw	a5,-20(s0)
	mv	a0,a5
	call	puthxww
	.loc 1 193 3
	li	a0,58
	call	putch
	.loc 1 194 3
	li	a0,32
	call	putch
	.loc 1 195 5
	lw	a5,-20(s0)
	sw	a5,-24(s0)
	.loc 1 195 13
	li	a5,16
	sw	a5,-36(s0)
.L62:
	.loc 1 197 13 discriminator 1
	lw	a5,-24(s0)
	addi	a4,a5,1
	sw	a4,-24(s0)
	.loc 1 197 11 discriminator 1
	lbu	a5,0(a5)
	.loc 1 197 4 discriminator 1
	mv	a0,a5
	call	puthxb
	.loc 1 198 4 discriminator 1
	li	a0,32
	call	putch
	.loc 1 199 3 discriminator 1
	lw	a5,-36(s0)
	addi	a5,a5,-1
	sw	a5,-36(s0)
	lw	a5,-36(s0)
	bnez	a5,.L62
	.loc 1 200 3
	li	a0,32
	call	putch
	.loc 1 201 3
	li	a0,32
	call	putch
	.loc 1 202 5
	lw	a5,-20(s0)
	sw	a5,-24(s0)
	.loc 1 202 13
	li	a5,16
	sw	a5,-36(s0)
.L65:
	.loc 1 204 18
	lw	a5,-24(s0)
	lbu	a4,0(a5)
	.loc 1 204 4
	li	a5,31
	bleu	a4,a5,.L63
	.loc 1 204 24 discriminator 1
	lw	a5,-24(s0)
	lbu	a4,0(a5)
	.loc 1 204 21 discriminator 1
	li	a5,126
	bgtu	a4,a5,.L63
	.loc 1 204 4 discriminator 3
	lw	a5,-24(s0)
	lbu	a5,0(a5)
	j	.L64
.L63:
	.loc 1 204 4 is_stmt 0 discriminator 4
	li	a5,46
.L64:
	.loc 1 204 4 discriminator 6
	mv	a0,a5
	call	putch
	.loc 1 205 5 is_stmt 1 discriminator 6
	lw	a5,-24(s0)
	addi	a5,a5,1
	sw	a5,-24(s0)
	.loc 1 206 3 discriminator 6
	lw	a5,-36(s0)
	addi	a5,a5,-1
	sw	a5,-36(s0)
	lw	a5,-36(s0)
	bnez	a5,.L65
	.loc 1 189 41 discriminator 2
	lw	a5,-20(s0)
	addi	a5,a5,16
	sw	a5,-20(s0)
.L60:
	.loc 1 189 2 discriminator 1
	lw	a4,-28(s0)
	lw	a5,-20(s0)
	bgtu	a4,a5,.L66
	.loc 1 189 27 discriminator 3
	lw	a4,-20(s0)
	lw	a5,-32(s0)
	bleu	a4,a5,.L67
.L66:
	.loc 1 208 8
	lui	a5,%hi(datap)
	lw	a4,-20(s0)
	sw	a4,%lo(datap)(a5)
	j	.L54
.L68:
	.loc 1 183 37
	nop
	j	.L54
.L69:
	.loc 1 188 21
	nop
.L54:
	.loc 1 209 1
	lw	ra,44(sp)
	.cfi_restore 1
	lw	s0,40(sp)
	.cfi_restore 8
	addi	sp,sp,48
	.cfi_def_cfa_register 2
	jr	ra
	.cfi_endproc
.LFE16:
	.size	xdump, .-xdump
	.section	.text.xsubst,"ax",@progbits
	.align	1
	.globl	xsubst
	.type	xsubst, @function
xsubst:
.LFB17:
	.loc 1 212 1
	.cfi_startproc
	addi	sp,sp,-32
	.cfi_def_cfa_offset 32
	sw	ra,28(sp)
	sw	s0,24(sp)
	.cfi_offset 1, -4
	.cfi_offset 8, -8
	addi	s0,sp,32
	.cfi_def_cfa 8, 0
	.loc 1 215 15
	lui	a5,%hi(datap)
	lw	a5,%lo(datap)(a5)
	mv	a0,a5
	call	ogetdata
	mv	a5,a0
	.loc 1 215 4
	sw	a5,-20(s0)
	.loc 1 216 8
	lw	a5,-20(s0)
	.loc 1 216 21
	srli	a5,a5,28
	.loc 1 216 5
	bnez	a5,.L71
	.loc 1 217 19
	lw	a4,-20(s0)
	.loc 1 217 31
	li	a5,-2147483648
	add	a5,a4,a5
	.loc 1 217 5
	sw	a5,-20(s0)
.L71:
	.loc 1 220 8
	lui	a5,%hi(lp)
	lw	a5,%lo(lp)(a5)
	lbu	a5,0(a5)
	.loc 1 220 7
	bnez	a5,.L80
.L72:
	.loc 1 223 3
	call	putcrlf
	.loc 1 224 3
	lw	a5,-20(s0)
	mv	a0,a5
	call	puthxww
	.loc 1 225 3
	li	a0,32
	call	putch
	.loc 1 226 3
	li	a0,32
	call	putch
	.loc 1 227 10
	lw	a5,-20(s0)
	lbu	a5,0(a5)
	.loc 1 227 3
	mv	a0,a5
	call	puthxb
	.loc 1 228 3
	li	a0,32
	call	putch
	.loc 1 229 3
	call	getline
	.loc 1 230 15
	lui	a5,%hi(line)
	lbu	a5,%lo(line)(a5)
	li	a4,46
	beq	a5,a4,.L81
	li	a4,94
	beq	a5,a4,.L75
	beqz	a5,.L76
	j	.L79
.L75:
	.loc 1 234 5
	lw	a5,-20(s0)
	addi	a5,a5,-1
	sw	a5,-20(s0)
	.loc 1 235 4
	j	.L78
.L76:
	.loc 1 237 5
	lw	a5,-20(s0)
	addi	a5,a5,1
	sw	a5,-20(s0)
	.loc 1 238 4
	j	.L78
.L79:
	.loc 1 240 11
	call	getdata
	mv	a3,a0
	.loc 1 240 6
	lw	a5,-20(s0)
	addi	a4,a5,1
	sw	a4,-20(s0)
	.loc 1 240 9
	andi	a4,a3,0xff
	sb	a4,0(a5)
	.loc 1 241 10
	lui	a5,%hi(lp)
	lw	a5,%lo(lp)(a5)
	lbu	a5,0(a5)
	.loc 1 241 9
	bnez	a5,.L82
.L78:
	.loc 1 223 3
	j	.L72
.L80:
	.loc 1 220 21
	nop
	j	.L70
.L81:
	.loc 1 232 4
	nop
	j	.L70
.L82:
	.loc 1 241 23
	nop
.L70:
	.loc 1 244 1
	lw	ra,28(sp)
	.cfi_restore 1
	lw	s0,24(sp)
	.cfi_restore 8
	addi	sp,sp,32
	.cfi_def_cfa_register 2
	jr	ra
	.cfi_endproc
.LFE17:
	.size	xsubst, .-xsubst
	.section	.text.xfill,"ax",@progbits
	.align	1
	.globl	xfill
	.type	xfill, @function
xfill:
.LFB18:
	.loc 1 248 1
	.cfi_startproc
	addi	sp,sp,-32
	.cfi_def_cfa_offset 32
	sw	ra,28(sp)
	sw	s0,24(sp)
	.cfi_offset 1, -4
	.cfi_offset 8, -8
	addi	s0,sp,32
	.cfi_def_cfa 8, 0
	.loc 1 252 18
	call	getdata
	mv	a5,a0
	.loc 1 252 7
	sw	a5,-20(s0)
	.loc 1 253 10
	lui	a5,%hi(lp)
	lw	a5,%lo(lp)(a5)
	addi	a3,a5,1
	lui	a4,%hi(lp)
	sw	a3,%lo(lp)(a4)
	.loc 1 253 7
	lbu	a4,0(a5)
	.loc 1 253 6
	li	a5,44
	bne	a4,a5,.L90
	.loc 1 254 16
	call	getdata
	mv	a5,a0
	.loc 1 254 5
	sw	a5,-28(s0)
	.loc 1 255 10
	lui	a5,%hi(lp)
	lw	a5,%lo(lp)(a5)
	addi	a3,a5,1
	lui	a4,%hi(lp)
	sw	a3,%lo(lp)(a4)
	.loc 1 255 7
	lbu	a4,0(a5)
	.loc 1 255 6
	li	a5,44
	bne	a4,a5,.L91
	.loc 1 256 8
	call	getdata
	mv	a5,a0
	.loc 1 256 6
	sb	a5,-29(s0)
	.loc 1 257 8
	lui	a5,%hi(lp)
	lw	a5,%lo(lp)(a5)
	lbu	a5,0(a5)
	.loc 1 257 7
	bnez	a5,.L92
	.loc 1 259 15
	lw	a4,-28(s0)
	lw	a5,-20(s0)
	sub	a5,a4,a5
	.loc 1 259 22
	addi	a5,a5,1
	.loc 1 259 10
	sw	a5,-24(s0)
	.loc 1 259 2
	j	.L88
.L89:
	.loc 1 260 8 discriminator 3
	lw	a5,-20(s0)
	addi	a4,a5,1
	sw	a4,-20(s0)
	.loc 1 260 11 discriminator 3
	lbu	a4,-29(s0)
	sb	a4,0(a5)
	.loc 1 259 36 discriminator 3
	lw	a5,-24(s0)
	addi	a5,a5,-1
	sw	a5,-24(s0)
.L88:
	.loc 1 259 2 discriminator 1
	lw	a5,-24(s0)
	bnez	a5,.L89
	j	.L83
.L90:
	.loc 1 253 21
	nop
	j	.L83
.L91:
	.loc 1 255 21
	nop
	j	.L83
.L92:
	.loc 1 257 21
	nop
.L83:
	.loc 1 261 1
	lw	ra,28(sp)
	.cfi_restore 1
	lw	s0,24(sp)
	.cfi_restore 8
	addi	sp,sp,32
	.cfi_def_cfa_register 2
	jr	ra
	.cfi_endproc
.LFE18:
	.size	xfill, .-xfill
	.comm	Sum,1,1
	.section	.text.hx1,"ax",@progbits
	.align	1
	.globl	hx1
	.type	hx1, @function
hx1:
.LFB19:
	.loc 1 265 1
	.cfi_startproc
	addi	sp,sp,-32
	.cfi_def_cfa_offset 32
	sw	ra,28(sp)
	sw	s0,24(sp)
	.cfi_offset 1, -4
	.cfi_offset 8, -8
	addi	s0,sp,32
	.cfi_def_cfa 8, 0
	.loc 1 267 11
	call	getcon
	mv	a5,a0
	mv	a0,a5
	call	inhex
	mv	a5,a0
	.loc 1 267 9
	sb	a5,-17(s0)
	.loc 1 267 5
	lbu	a4,-17(s0)
	li	a5,15
	bleu	a4,a5,.L94
	.loc 1 268 10
	li	a5,0
	j	.L95
.L94:
	.loc 1 269 9
	lbu	a5,-17(s0)
.L95:
	.loc 1 270 1
	mv	a0,a5
	lw	ra,28(sp)
	.cfi_restore 1
	lw	s0,24(sp)
	.cfi_restore 8
	addi	sp,sp,32
	.cfi_def_cfa_register 2
	jr	ra
	.cfi_endproc
.LFE19:
	.size	hx1, .-hx1
	.section	.text.hxbyte,"ax",@progbits
	.align	1
	.globl	hxbyte
	.type	hxbyte, @function
hxbyte:
.LFB20:
	.loc 1 273 1
	.cfi_startproc
	addi	sp,sp,-32
	.cfi_def_cfa_offset 32
	sw	ra,28(sp)
	sw	s0,24(sp)
	sw	s1,20(sp)
	.cfi_offset 1, -4
	.cfi_offset 8, -8
	.cfi_offset 9, -12
	addi	s0,sp,32
	.cfi_def_cfa 8, 0
	.loc 1 275 6
	call	hx1
	mv	a5,a0
	sb	a5,-17(s0)
	.loc 1 276 13
	lbu	a5,-17(s0)
	slli	a5,a5,4
	andi	s1,a5,0xff
	.loc 1 276 15
	call	hx1
	mv	a5,a0
	.loc 1 276 4
	add	a5,s1,a5
	sb	a5,-17(s0)
	.loc 1 277 6
	lui	a5,%hi(Sum)
	lbu	a4,%lo(Sum)(a5)
	lbu	a5,-17(s0)
	add	a5,a4,a5
	andi	a4,a5,0xff
	lui	a5,%hi(Sum)
	sb	a4,%lo(Sum)(a5)
	.loc 1 278 9
	lbu	a5,-17(s0)
	.loc 1 279 1
	mv	a0,a5
	lw	ra,28(sp)
	.cfi_restore 1
	lw	s0,24(sp)
	.cfi_restore 8
	lw	s1,20(sp)
	.cfi_restore 9
	addi	sp,sp,32
	.cfi_def_cfa_register 2
	jr	ra
	.cfi_endproc
.LFE20:
	.size	hxbyte, .-hxbyte
	.section	.text.hxword,"ax",@progbits
	.align	1
	.globl	hxword
	.type	hxword, @function
hxword:
.LFB21:
	.loc 1 282 1
	.cfi_startproc
	addi	sp,sp,-32
	.cfi_def_cfa_offset 32
	sw	ra,28(sp)
	sw	s0,24(sp)
	sw	s1,20(sp)
	.cfi_offset 1, -4
	.cfi_offset 8, -8
	.cfi_offset 9, -12
	addi	s0,sp,32
	.cfi_def_cfa 8, 0
	.loc 1 284 6
	call	hxbyte
	mv	a5,a0
	sb	a5,-17(s0)
	.loc 1 285 11
	lbu	a5,-17(s0)
	.loc 1 285 23
	slli	s1,a5,8
	.loc 1 285 31
	call	hxbyte
	mv	a5,a0
	.loc 1 285 29
	or	a5,s1,a5
	.loc 1 286 1
	mv	a0,a5
	lw	ra,28(sp)
	.cfi_restore 1
	lw	s0,24(sp)
	.cfi_restore 8
	lw	s1,20(sp)
	.cfi_restore 9
	addi	sp,sp,32
	.cfi_def_cfa_register 2
	jr	ra
	.cfi_endproc
.LFE21:
	.size	hxword, .-hxword
	.globl	STARTADDR
	.section	.sdata,"aw"
	.align	2
	.type	STARTADDR, @object
	.size	STARTADDR, 4
STARTADDR:
	.word	1075838976
	.section	.rodata
	.align	2
.LC0:
	.string	"Entry Found : %08X\r\n"
	.section	.text.xread,"ax",@progbits
	.align	1
	.globl	xread
	.type	xread, @function
xread:
.LFB22:
	.loc 1 291 1
	.cfi_startproc
	addi	sp,sp,-32
	.cfi_def_cfa_offset 32
	sw	ra,28(sp)
	sw	s0,24(sp)
	sw	s1,20(sp)
	.cfi_offset 1, -4
	.cfi_offset 8, -8
	.cfi_offset 9, -12
	addi	s0,sp,32
	.cfi_def_cfa 8, 0
	.loc 1 293 11
	li	a5,-2147483648
	sw	a5,-20(s0)
.L108:
	.loc 1 298 9 discriminator 1
	nop
.L101:
	.loc 1 298 10 discriminator 1
	call	getcon
	mv	a5,a0
	mv	a4,a5
	.loc 1 298 9 discriminator 1
	li	a5,58
	bne	a4,a5,.L101
	.loc 1 300 7
	lui	a5,%hi(Sum)
	sb	zero,%lo(Sum)(a5)
	.loc 1 301 9
	call	hxbyte
	mv	a5,a0
	.loc 1 301 7
	sw	a5,-24(s0)
	.loc 1 302 6
	lw	a5,-24(s0)
	beqz	a5,.L109
	.loc 1 304 16
	call	hxword
	mv	a5,a0
	.loc 1 304 5
	sw	a5,-28(s0)
	.loc 1 305 11
	call	hxbyte
	mv	a5,a0
	.loc 1 305 9
	sw	a5,-32(s0)
	.loc 1 306 6
	lw	a5,-32(s0)
	beqz	a5,.L104
	.loc 1 307 7
	lw	a4,-32(s0)
	li	a5,4
	bne	a4,a5,.L105
	.loc 1 308 11
	call	hxword
	mv	a5,a0
	.loc 1 308 9
	slli	a5,a5,16
	sw	a5,-20(s0)
	.loc 1 309 5
	call	hxbyte
	.loc 1 310 5
	j	.L106
.L105:
	.loc 1 311 14
	lw	a4,-32(s0)
	li	a5,5
	bne	a4,a5,.L110
	.loc 1 312 11
	call	hxword
	mv	a5,a0
	.loc 1 312 9
	slli	a5,a5,16
	sw	a5,-20(s0)
	.loc 1 313 12
	call	hxword
	mv	a4,a0
	.loc 1 313 9
	lw	a5,-20(s0)
	or	a5,a5,a4
	sw	a5,-20(s0)
	.loc 1 314 5
	call	hxbyte
	.loc 1 315 15
	lui	a5,%hi(STARTADDR)
	lw	a4,-20(s0)
	sw	a4,%lo(STARTADDR)(a5)
	.loc 1 316 5
	lui	a5,%hi(STARTADDR)
	lw	a5,%lo(STARTADDR)(a5)
	mv	a1,a5
	lui	a5,%hi(.LC0)
	addi	a0,a5,%lo(.LC0)
	call	xprintf
	.loc 1 317 5
	j	.L106
.L104:
	.loc 1 323 9 discriminator 1
	lw	a4,-28(s0)
	lw	a5,-20(s0)
	add	s1,a4,a5
	.loc 1 323 15 discriminator 1
	call	hxbyte
	mv	a5,a0
	.loc 1 323 13 discriminator 1
	sb	a5,0(s1)
	.loc 1 324 5 discriminator 1
	lw	a5,-28(s0)
	addi	a5,a5,1
	sw	a5,-28(s0)
	.loc 1 325 3 discriminator 1
	lw	a5,-24(s0)
	addi	a5,a5,-1
	sw	a5,-24(s0)
	lw	a5,-24(s0)
	bnez	a5,.L104
	.loc 1 326 3
	call	hxbyte
	.loc 1 327 11
	lui	a5,%hi(Sum)
	lbu	a5,%lo(Sum)(a5)
	.loc 1 327 6
	beqz	a5,.L108
	.loc 1 328 6
	call	putcrlf
	.loc 1 328 17
	li	a0,63
	call	putch
	.loc 1 328 29
	j	.L100
.L106:
	.loc 1 298 9
	j	.L108
.L109:
	.loc 1 303 4
	nop
	j	.L100
.L110:
	.loc 1 319 5
	nop
.L100:
	.loc 1 330 1
	lw	ra,28(sp)
	.cfi_restore 1
	lw	s0,24(sp)
	.cfi_restore 8
	lw	s1,20(sp)
	.cfi_restore 9
	addi	sp,sp,32
	.cfi_def_cfa_register 2
	jr	ra
	.cfi_endproc
.LFE22:
	.size	xread, .-xread
	.section	.text.hx1lp,"ax",@progbits
	.align	1
	.globl	hx1lp
	.type	hx1lp, @function
hx1lp:
.LFB23:
	.loc 1 333 1
	.cfi_startproc
	addi	sp,sp,-32
	.cfi_def_cfa_offset 32
	sw	ra,28(sp)
	sw	s0,24(sp)
	.cfi_offset 1, -4
	.cfi_offset 8, -8
	addi	s0,sp,32
	.cfi_def_cfa 8, 0
	.loc 1 336 20
	lui	a5,%hi(lp)
	lw	a5,%lo(lp)(a5)
	addi	a3,a5,1
	lui	a4,%hi(lp)
	sw	a3,%lo(lp)(a4)
	.loc 1 336 11
	lbu	a5,0(a5)
	mv	a0,a5
	call	inhex
	mv	a5,a0
	.loc 1 336 9
	sb	a5,-17(s0)
	.loc 1 336 5
	lbu	a4,-17(s0)
	li	a5,15
	bleu	a4,a5,.L112
	.loc 1 337 5
	sb	zero,-17(s0)
.L112:
	.loc 1 338 9
	lbu	a5,-17(s0)
	.loc 1 339 1
	mv	a0,a5
	lw	ra,28(sp)
	.cfi_restore 1
	lw	s0,24(sp)
	.cfi_restore 8
	addi	sp,sp,32
	.cfi_def_cfa_register 2
	jr	ra
	.cfi_endproc
.LFE23:
	.size	hx1lp, .-hx1lp
	.section	.text.hxbytelp,"ax",@progbits
	.align	1
	.globl	hxbytelp
	.type	hxbytelp, @function
hxbytelp:
.LFB24:
	.loc 1 342 1
	.cfi_startproc
	addi	sp,sp,-32
	.cfi_def_cfa_offset 32
	sw	ra,28(sp)
	sw	s0,24(sp)
	sw	s1,20(sp)
	.cfi_offset 1, -4
	.cfi_offset 8, -8
	.cfi_offset 9, -12
	addi	s0,sp,32
	.cfi_def_cfa 8, 0
	.loc 1 345 6
	call	hx1lp
	mv	a5,a0
	sb	a5,-17(s0)
	.loc 1 346 13
	lbu	a5,-17(s0)
	slli	a5,a5,4
	andi	s1,a5,0xff
	.loc 1 346 15
	call	hx1lp
	mv	a5,a0
	.loc 1 346 4
	add	a5,s1,a5
	sb	a5,-17(s0)
	.loc 1 347 6
	lui	a5,%hi(Sum)
	lbu	a4,%lo(Sum)(a5)
	lbu	a5,-17(s0)
	add	a5,a4,a5
	andi	a4,a5,0xff
	lui	a5,%hi(Sum)
	sb	a4,%lo(Sum)(a5)
	.loc 1 348 9
	lbu	a5,-17(s0)
	.loc 1 349 1
	mv	a0,a5
	lw	ra,28(sp)
	.cfi_restore 1
	lw	s0,24(sp)
	.cfi_restore 8
	lw	s1,20(sp)
	.cfi_restore 9
	addi	sp,sp,32
	.cfi_def_cfa_register 2
	jr	ra
	.cfi_endproc
.LFE24:
	.size	hxbytelp, .-hxbytelp
	.section	.text.hxwordlp,"ax",@progbits
	.align	1
	.globl	hxwordlp
	.type	hxwordlp, @function
hxwordlp:
.LFB25:
	.loc 1 352 1
	.cfi_startproc
	addi	sp,sp,-32
	.cfi_def_cfa_offset 32
	sw	ra,28(sp)
	sw	s0,24(sp)
	sw	s1,20(sp)
	.cfi_offset 1, -4
	.cfi_offset 8, -8
	.cfi_offset 9, -12
	addi	s0,sp,32
	.cfi_def_cfa 8, 0
	.loc 1 355 6
	call	hxbytelp
	mv	a5,a0
	sb	a5,-17(s0)
	.loc 1 356 11
	lbu	a5,-17(s0)
	.loc 1 356 23
	slli	s1,a5,8
	.loc 1 356 31
	call	hxbytelp
	mv	a5,a0
	.loc 1 356 29
	or	a5,s1,a5
	.loc 1 357 1
	mv	a0,a5
	lw	ra,28(sp)
	.cfi_restore 1
	lw	s0,24(sp)
	.cfi_restore 8
	lw	s1,20(sp)
	.cfi_restore 9
	addi	sp,sp,32
	.cfi_def_cfa_register 2
	jr	ra
	.cfi_endproc
.LFE25:
	.size	hxwordlp, .-hxwordlp
	.comm	FatFs,552,4
	.section	.rodata
	.align	2
.LC1:
	.string	""
	.align	2
.LC2:
	.string	"*"
	.align	2
.LC3:
	.string	"<DIR>  %s\n"
	.align	2
.LC4:
	.string	"<FILE> %s\n"
	.section	.text.xdir,"ax",@progbits
	.align	1
	.globl	xdir
	.type	xdir, @function
xdir:
.LFB26:
	.loc 1 362 1
	.cfi_startproc
	addi	sp,sp,-96
	.cfi_def_cfa_offset 96
	sw	ra,92(sp)
	sw	s0,88(sp)
	.cfi_offset 1, -4
	.cfi_offset 8, -8
	addi	s0,sp,96
	.cfi_def_cfa 8, 0
	.loc 1 367 2
	call	putcrlf
	.loc 1 368 2
	li	a2,0
	lui	a5,%hi(.LC1)
	addi	a1,a5,%lo(.LC1)
	lui	a5,%hi(FatFs)
	addi	a0,a5,%lo(FatFs)
	call	f_mount
	.loc 1 369 7
	addi	a1,s0,-92
	addi	a4,s0,-68
	lui	a5,%hi(.LC2)
	addi	a3,a5,%lo(.LC2)
	lui	a5,%hi(.LC1)
	addi	a2,a5,%lo(.LC1)
	mv	a0,a4
	call	f_findfirst
	sw	a0,-20(s0)
	.loc 1 370 8
	j	.L119
.L123:
	.loc 1 371 10
	lbu	a5,-84(s0)
	.loc 1 371 19
	andi	a5,a5,16
	.loc 1 371 6
	beqz	a5,.L120
	.loc 1 372 4
	addi	a5,s0,-92
	addi	a5,a5,9
	mv	a1,a5
	lui	a5,%hi(.LC3)
	addi	a0,a5,%lo(.LC3)
	call	xprintf
	j	.L121
.L120:
	.loc 1 374 4
	addi	a5,s0,-92
	addi	a5,a5,9
	mv	a1,a5
	lui	a5,%hi(.LC4)
	addi	a0,a5,%lo(.LC4)
	call	xprintf
.L121:
	.loc 1 376 8
	addi	a4,s0,-92
	addi	a5,s0,-68
	mv	a1,a4
	mv	a0,a5
	call	f_findnext
	sw	a0,-20(s0)
.L119:
	.loc 1 370 8
	lw	a5,-20(s0)
	bnez	a5,.L122
	.loc 1 370 33 discriminator 1
	lbu	a5,-83(s0)
	.loc 1 370 21 discriminator 1
	bnez	a5,.L123
.L122:
	.loc 1 378 2
	addi	a5,s0,-68
	mv	a0,a5
	call	f_closedir
	.loc 1 379 1
	nop
	lw	ra,92(sp)
	.cfi_restore 1
	lw	s0,88(sp)
	.cfi_restore 8
	addi	sp,sp,96
	.cfi_def_cfa_register 2
	jr	ra
	.cfi_endproc
.LFE26:
	.size	xdir, .-xdir
	.section	.rodata
	.align	2
.LC5:
	.string	"%s : Not Found \n"
	.align	2
.LC6:
	.string	"Entry Found : %08X\n"
	.align	2
.LC7:
	.string	"Sum Invalid.\n"
	.align	2
.LC8:
	.string	"%d Bytes read.\n"
	.align	2
.LC9:
	.string	"SUM=%08X\n"
	.section	.text.xsdread,"ax",@progbits
	.align	1
	.globl	xsdread
	.type	xsdread, @function
xsdread:
.LFB27:
	.loc 1 382 1
	.cfi_startproc
	addi	sp,sp,-608
	.cfi_def_cfa_offset 608
	sw	ra,604(sp)
	sw	s0,600(sp)
	sw	s1,596(sp)
	.cfi_offset 1, -4
	.cfi_offset 8, -8
	.cfi_offset 9, -12
	addi	s0,sp,608
	.cfi_def_cfa 8, 0
	.loc 1 386 11
	li	a5,-2147483648
	sw	a5,-24(s0)
	.loc 1 393 2
	call	putcrlf
	.loc 1 394 2
	li	a2,0
	lui	a5,%hi(.LC1)
	addi	a1,a5,%lo(.LC1)
	lui	a5,%hi(FatFs)
	addi	a0,a5,%lo(FatFs)
	call	f_mount
	.loc 1 395 7
	addi	a4,s0,-600
	li	a2,1
	lui	a5,%hi(line+1)
	addi	a1,a5,%lo(line+1)
	mv	a0,a4
	call	f_open
	sw	a0,-44(s0)
	.loc 1 396 5
	lw	a5,-44(s0)
	beqz	a5,.L125
	.loc 1 397 3
	lui	a5,%hi(line+1)
	addi	a1,a5,%lo(line+1)
	lui	a5,%hi(.LC5)
	addi	a0,a5,%lo(.LC5)
	call	xprintf
	j	.L124
.L125:
	.loc 1 401 12
	sw	zero,-32(s0)
.L142:
	.loc 1 403 7
	lui	a5,%hi(lp)
	lui	a4,%hi(line)
	addi	a4,a4,%lo(line)
	sw	a4,%lo(lp)(a5)
	.loc 1 403 4
	lui	a5,%hi(lp)
	lw	a5,%lo(lp)(a5)
	sw	a5,-48(s0)
.L132:
	.loc 1 405 4
	addi	a4,s0,-604
	addi	a5,s0,-600
	mv	a3,a4
	li	a2,1
	lw	a1,-48(s0)
	mv	a0,a5
	call	f_read
	.loc 1 406 11
	lw	a4,-604(s0)
	.loc 1 406 7
	li	a5,1
	bne	a4,a5,.L145
	.loc 1 407 8
	lw	a5,-48(s0)
	lbu	a4,0(a5)
	.loc 1 407 7
	li	a5,58
	beq	a4,a5,.L146
	.loc 1 408 8
	lw	a5,-48(s0)
	lbu	a4,0(a5)
	.loc 1 408 7
	li	a5,32
	bgtu	a4,a5,.L147
	.loc 1 405 4 discriminator 1
	j	.L132
.L146:
	.loc 1 407 4
	nop
	j	.L130
.L147:
	.loc 1 409 4
	nop
.L130:
	.loc 1 412 7
	lui	a5,%hi(lp)
	lui	a4,%hi(line)
	addi	a4,a4,%lo(line)
	sw	a4,%lo(lp)(a5)
	.loc 1 412 4
	lui	a5,%hi(lp)
	lw	a5,%lo(lp)(a5)
	sw	a5,-48(s0)
	.loc 1 413 3
	addi	a4,s0,-604
	addi	a5,s0,-600
	mv	a3,a4
	li	a2,2
	lw	a1,-48(s0)
	mv	a0,a5
	call	f_read
	.loc 1 414 10
	lw	a4,-604(s0)
	.loc 1 414 6
	li	a5,2
	bne	a4,a5,.L148
	.loc 1 415 7
	lui	a5,%hi(Sum)
	sb	zero,%lo(Sum)(a5)
	.loc 1 416 9
	call	hxbytelp
	mv	a5,a0
	.loc 1 416 7
	sw	a5,-20(s0)
	.loc 1 417 6
	lw	a5,-20(s0)
	beqz	a5,.L149
	.loc 1 417 18 discriminator 1
	lw	a4,-20(s0)
	li	a5,40
	bgtu	a4,a5,.L149
	.loc 1 419 7
	lui	a5,%hi(lp)
	lui	a4,%hi(line)
	addi	a4,a4,%lo(line)
	sw	a4,%lo(lp)(a5)
	.loc 1 419 4
	lui	a5,%hi(lp)
	lw	a5,%lo(lp)(a5)
	sw	a5,-48(s0)
	.loc 1 420 3
	lw	a5,-20(s0)
	addi	a5,a5,4
	.loc 1 420 29
	slli	a4,a5,1
	.loc 1 420 3
	addi	a3,s0,-604
	addi	a5,s0,-600
	mv	a2,a4
	lw	a1,-48(s0)
	mv	a0,a5
	call	f_read
	.loc 1 421 23
	lw	a5,-20(s0)
	addi	a5,a5,4
	slli	a4,a5,1
	.loc 1 421 10
	lw	a5,-604(s0)
	.loc 1 421 6
	bne	a4,a5,.L150
	.loc 1 423 18
	call	hxwordlp
	mv	a5,a0
	.loc 1 423 7
	sw	a5,-28(s0)
	.loc 1 424 11
	call	hxbytelp
	mv	a5,a0
	.loc 1 424 9
	sw	a5,-52(s0)
	.loc 1 425 6
	lw	a5,-52(s0)
	beqz	a5,.L137
	.loc 1 426 7
	lw	a4,-52(s0)
	li	a5,4
	bne	a4,a5,.L138
	.loc 1 427 11
	call	hxwordlp
	mv	a5,a0
	.loc 1 427 9
	slli	a5,a5,16
	sw	a5,-24(s0)
	.loc 1 428 5
	call	hxbytelp
	.loc 1 429 5
	j	.L139
.L138:
	.loc 1 430 14
	lw	a4,-52(s0)
	li	a5,5
	bne	a4,a5,.L151
	.loc 1 431 11
	call	hxwordlp
	mv	a5,a0
	.loc 1 431 9
	slli	a5,a5,16
	sw	a5,-24(s0)
	.loc 1 432 12
	call	hxwordlp
	mv	a4,a0
	.loc 1 432 9
	lw	a5,-24(s0)
	or	a5,a5,a4
	sw	a5,-24(s0)
	.loc 1 433 5
	call	hxbytelp
	.loc 1 434 15
	lui	a5,%hi(STARTADDR)
	lw	a4,-24(s0)
	sw	a4,%lo(STARTADDR)(a5)
	.loc 1 435 5
	lui	a5,%hi(STARTADDR)
	lw	a5,%lo(STARTADDR)(a5)
	mv	a1,a5
	lui	a5,%hi(.LC6)
	addi	a0,a5,%lo(.LC6)
	call	xprintf
	.loc 1 436 5
	j	.L139
.L137:
	.loc 1 441 12
	lw	a4,-32(s0)
	lw	a5,-20(s0)
	add	a5,a4,a5
	sw	a5,-32(s0)
.L141:
	.loc 1 443 11 discriminator 1
	lw	a5,-28(s0)
	addi	a4,a5,1
	sw	a4,-28(s0)
	.loc 1 443 7 discriminator 1
	lw	a4,-24(s0)
	add	s1,a5,a4
	.loc 1 443 17 discriminator 1
	call	hxbytelp
	mv	a5,a0
	.loc 1 443 15 discriminator 1
	sb	a5,0(s1)
	.loc 1 444 3 discriminator 1
	lw	a5,-20(s0)
	addi	a5,a5,-1
	sw	a5,-20(s0)
	lw	a5,-20(s0)
	bnez	a5,.L141
	.loc 1 445 3
	call	hxbytelp
	.loc 1 446 11
	lui	a5,%hi(Sum)
	lbu	a5,%lo(Sum)(a5)
	.loc 1 446 6
	beqz	a5,.L142
	.loc 1 447 4
	lui	a5,%hi(.LC7)
	addi	a0,a5,%lo(.LC7)
	call	xprintf
	.loc 1 448 4
	j	.L128
.L139:
	.loc 1 403 4
	j	.L142
.L145:
	.loc 1 406 17
	nop
	j	.L128
.L148:
	.loc 1 414 16
	nop
	j	.L128
.L149:
	.loc 1 418 4
	nop
	j	.L128
.L150:
	.loc 1 421 28
	nop
	j	.L128
.L151:
	.loc 1 438 5
	nop
.L128:
	.loc 1 452 2
	addi	a5,s0,-600
	mv	a0,a5
	call	f_close
	.loc 1 453 2
	lw	a1,-32(s0)
	lui	a5,%hi(.LC8)
	addi	a0,a5,%lo(.LC8)
	call	xprintf
.LBB3:
	.loc 1 457 12
	sw	zero,-40(s0)
	.loc 1 458 16
	lui	a5,%hi(STARTADDR)
	lw	a5,%lo(STARTADDR)(a5)
	.loc 1 458 12
	sw	a5,-56(s0)
	.loc 1 459 8
	sw	zero,-36(s0)
	.loc 1 459 3
	j	.L143
.L144:
	.loc 1 460 12 discriminator 3
	lw	a5,-36(s0)
	lw	a4,-56(s0)
	add	a5,a4,a5
	lbu	a5,0(a5)
	mv	a4,a5
	.loc 1 460 8 discriminator 3
	lw	a5,-40(s0)
	add	a5,a5,a4
	sw	a5,-40(s0)
	.loc 1 459 24 discriminator 3
	lw	a5,-36(s0)
	addi	a5,a5,1
	sw	a5,-36(s0)
.L143:
	.loc 1 459 12 discriminator 1
	lw	a5,-36(s0)
	.loc 1 459 3 discriminator 1
	lw	a4,-32(s0)
	bgtu	a4,a5,.L144
	.loc 1 462 3
	lw	a1,-40(s0)
	lui	a5,%hi(.LC9)
	addi	a0,a5,%lo(.LC9)
	call	xprintf
.L124:
.LBE3:
	.loc 1 464 1
	lw	ra,604(sp)
	.cfi_restore 1
	lw	s0,600(sp)
	.cfi_restore 8
	lw	s1,596(sp)
	.cfi_restore 9
	addi	sp,sp,608
	.cfi_def_cfa_register 2
	jr	ra
	.cfi_endproc
.LFE27:
	.size	xsdread, .-xsdread
	.section	.rodata
	.align	2
.LC10:
	.string	"\nTP TEST\n"
	.globl	__floatunsidf
	.globl	__muldf3
	.globl	__divdf3
	.globl	__fixunsdfsi
	.align	2
.LC15:
	.string	"(%d,%d)  : %04X,%04X,%04X\n"
	.section	.text.xtptest,"ax",@progbits
	.align	1
	.globl	xtptest
	.type	xtptest, @function
xtptest:
.LFB28:
	.loc 1 468 1
	.cfi_startproc
	addi	sp,sp,-48
	.cfi_def_cfa_offset 48
	sw	ra,44(sp)
	sw	s0,40(sp)
	.cfi_offset 1, -4
	.cfi_offset 8, -8
	addi	s0,sp,48
	.cfi_def_cfa 8, 0
	.loc 1 479 2
	lui	a5,%hi(.LC10)
	addi	a0,a5,%lo(.LC10)
	call	xprintf
.L160:
	.loc 1 481 9
	call	consts
	mv	a5,a0
	.loc 1 481 8
	beqz	a5,.L153
	.loc 1 481 21 discriminator 1
	call	getcon
	.loc 1 481 31 discriminator 1
	j	.L161
.L153:
	.loc 1 482 15
	li	a5,-268107776
	addi	a5,a5,172
	.loc 1 482 12
	lw	a5,0(a5)
	sw	a5,-20(s0)
	.loc 1 483 14
	li	a5,-268107776
	addi	a5,a5,164
	.loc 1 483 11
	lw	a5,0(a5)
	sw	a5,-24(s0)
	.loc 1 484 14
	li	a5,-268107776
	addi	a5,a5,168
	.loc 1 484 11
	lw	a5,0(a5)
	sw	a5,-28(s0)
	.loc 1 485 6
	lw	a4,-20(s0)
	li	a5,120
	bleu	a4,a5,.L160
	.loc 1 486 7
	lw	a4,-24(s0)
	li	a5,175
	bleu	a4,a5,.L162
	.loc 1 486 26 discriminator 1
	lw	a4,-24(s0)
	li	a5,4096
	addi	a5,a5,-192
	bgtu	a4,a5,.L162
	.loc 1 489 7
	lw	a4,-28(s0)
	li	a5,335
	bleu	a4,a5,.L163
	.loc 1 489 26 discriminator 1
	lw	a4,-28(s0)
	li	a5,4096
	addi	a5,a5,-156
	bgtu	a4,a5,.L163
	.loc 1 492 19
	lw	a5,-24(s0)
	addi	a5,a5,-176
	.loc 1 492 28
	mv	a0,a5
	call	__floatunsidf
.LVL0:
	lui	a5,%hi(.LC11)
	lw	a2,%lo(.LC11)(a5)
	lw	a3,%lo(.LC11+4)(a5)
	call	__muldf3
.LVL1:
	mv	a5,a0
	mv	a6,a1
	mv	a0,a5
	mv	a1,a6
	.loc 1 492 36
	lui	a5,%hi(.LC12)
	lw	a2,%lo(.LC12)(a5)
	lw	a3,%lo(.LC12+4)(a5)
	call	__divdf3
.LVL2:
	mv	a5,a0
	mv	a6,a1
	.loc 1 492 8
	mv	a0,a5
	mv	a1,a6
	call	__fixunsdfsi
.LVL3:
	mv	a5,a0
	sw	a5,-32(s0)
	.loc 1 493 19
	lw	a5,-28(s0)
	addi	a5,a5,-336
	.loc 1 493 28
	mv	a0,a5
	call	__floatunsidf
.LVL4:
	lui	a5,%hi(.LC13)
	lw	a2,%lo(.LC13)(a5)
	lw	a3,%lo(.LC13+4)(a5)
	call	__muldf3
.LVL5:
	mv	a5,a0
	mv	a6,a1
	mv	a0,a5
	mv	a1,a6
	.loc 1 493 36
	lui	a5,%hi(.LC14)
	lw	a2,%lo(.LC14)(a5)
	lw	a3,%lo(.LC14+4)(a5)
	call	__divdf3
.LVL6:
	mv	a5,a0
	mv	a6,a1
	.loc 1 493 8
	mv	a0,a5
	mv	a1,a6
	call	__fixunsdfsi
.LVL7:
	mv	a5,a0
	sw	a5,-36(s0)
	.loc 1 494 4
	lw	a5,-20(s0)
	lw	a4,-28(s0)
	lw	a3,-24(s0)
	lw	a2,-36(s0)
	lw	a1,-32(s0)
	lui	a0,%hi(.LC15)
	addi	a0,a0,%lo(.LC15)
	call	xprintf
	j	.L160
.L162:
	.loc 1 487 5
	nop
	j	.L160
.L163:
	.loc 1 490 5
	nop
	.loc 1 481 8
	j	.L160
.L161:
	.loc 1 497 1
	lw	ra,44(sp)
	.cfi_restore 1
	lw	s0,40(sp)
	.cfi_restore 8
	addi	sp,sp,48
	.cfi_def_cfa_register 2
	jr	ra
	.cfi_endproc
.LFE28:
	.size	xtptest, .-xtptest
	.globl	HelpMsg
	.section	.rodata
	.align	2
.LC16:
	.string	"D:Dump     - D(Begin),(End)\nF:Fill     - F(Begin),(End),(Val)\nG:Go       - G<STARTENTRY:fromihex>\nR:Read Intel Hex\nS:Set      - S(Addr)\n=:SD DIR   - =\n!:SD IHEX  - !(Filename)\nT:TP TEST\n"
	.section	.sdata
	.align	2
	.type	HelpMsg, @object
	.size	HelpMsg, 4
HelpMsg:
	.word	.LC16
	.section	.text.xhelp,"ax",@progbits
	.align	1
	.globl	xhelp
	.type	xhelp, @function
xhelp:
.LFB29:
	.loc 1 512 1
	.cfi_startproc
	addi	sp,sp,-16
	.cfi_def_cfa_offset 16
	sw	ra,12(sp)
	sw	s0,8(sp)
	.cfi_offset 1, -4
	.cfi_offset 8, -8
	addi	s0,sp,16
	.cfi_def_cfa 8, 0
	.loc 1 513 2
	lui	a5,%hi(HelpMsg)
	lw	a5,%lo(HelpMsg)(a5)
	mv	a0,a5
	call	xprintf
	.loc 1 514 1
	nop
	lw	ra,12(sp)
	.cfi_restore 1
	lw	s0,8(sp)
	.cfi_restore 8
	addi	sp,sp,16
	.cfi_def_cfa_register 2
	jr	ra
	.cfi_endproc
.LFE29:
	.size	xhelp, .-xhelp
	.section	.text.xgo,"ax",@progbits
	.align	1
	.globl	xgo
	.type	xgo, @function
xgo:
.LFB30:
	.loc 1 517 1
	.cfi_startproc
	addi	sp,sp,-16
	.cfi_def_cfa_offset 16
	sw	ra,12(sp)
	sw	s0,8(sp)
	.cfi_offset 1, -4
	.cfi_offset 8, -8
	addi	s0,sp,16
	.cfi_def_cfa 8, 0
	.loc 1 519 3
	lui	a5,%hi(STARTADDR)
	lw	a5,%lo(STARTADDR)(a5)
	jalr	a5
.LVL8:
	.loc 1 520 1
	nop
	lw	ra,12(sp)
	.cfi_restore 1
	lw	s0,8(sp)
	.cfi_restore 8
	addi	sp,sp,16
	.cfi_def_cfa_register 2
	jr	ra
	.cfi_endproc
.LFE30:
	.size	xgo, .-xgo
	.globl	comtbl
	.data
	.align	2
	.type	comtbl, @object
	.size	comtbl, 80
comtbl:
	.byte	68
	.zero	3
	.word	xdump
	.byte	70
	.zero	3
	.word	xfill
	.byte	71
	.zero	3
	.word	xgo
	.byte	82
	.zero	3
	.word	xread
	.byte	83
	.zero	3
	.word	xsubst
	.byte	61
	.zero	3
	.word	xdir
	.byte	33
	.zero	3
	.word	xsdread
	.byte	63
	.zero	3
	.word	xhelp
	.byte	84
	.zero	3
	.word	xtptest
	.byte	0
	.zero	3
	.word	_error
	.section	.rodata
	.align	2
.LC17:
	.string	"*** VexRiscv Monitor ***"
	.align	2
.LC18:
	.string	"\n%d(ms)>"
	.section	.text._main,"ax",@progbits
	.align	1
	.globl	_main
	.type	_main, @function
_main:
.LFB31:
	.loc 1 545 1
	.cfi_startproc
	addi	sp,sp,-32
	.cfi_def_cfa_offset 32
	sw	ra,28(sp)
	sw	s0,24(sp)
	.cfi_offset 1, -4
	.cfi_offset 8, -8
	addi	s0,sp,32
	.cfi_def_cfa 8, 0
	.loc 1 548 11
	lui	a5,%hi(irqCount)
	lw	a5,%lo(irqCount)(a5)
	sw	a5,-24(s0)
	.loc 1 550 2
	lui	a5,%hi(.LC17)
	addi	a0,a5,%lo(.LC17)
	call	xprintf
.L173:
	.loc 1 553 3
	lui	a5,%hi(irqCount)
	lw	a4,%lo(irqCount)(a5)
	lw	a5,-24(s0)
	sub	a5,a4,a5
	mv	a1,a5
	lui	a5,%hi(.LC18)
	addi	a0,a5,%lo(.LC18)
	call	xprintf
	.loc 1 554 3
	call	getline
	.loc 1 555 11
	lui	a5,%hi(line)
	lbu	a5,%lo(line)(a5)
	.loc 1 555 6
	bnez	a5,.L167
	.loc 1 556 17
	lui	a5,%hi(irqCount)
	lw	a5,%lo(irqCount)(a5)
	sw	a5,-24(s0)
	.loc 1 557 4
	j	.L168
.L167:
	.loc 1 559 6
	lui	a5,%hi(lp)
	lui	a4,%hi(line+1)
	addi	a4,a4,%lo(line+1)
	sw	a4,%lo(lp)(a5)
	.loc 1 560 10
	lui	a5,%hi(comtbl)
	addi	a5,a5,%lo(comtbl)
	sw	a5,-20(s0)
	.loc 1 560 3
	j	.L169
.L172:
	.loc 1 561 17
	lui	a5,%hi(line)
	lbu	a5,%lo(line)(a5)
	.loc 1 561 7
	lbu	a4,-25(s0)
	beq	a4,a5,.L174
	.loc 1 560 40 discriminator 2
	lw	a5,-20(s0)
	addi	a5,a5,8
	sw	a5,-20(s0)
.L169:
	.loc 1 560 22 discriminator 1
	lw	a5,-20(s0)
	lbu	a5,0(a5)
	sb	a5,-25(s0)
	.loc 1 560 3 discriminator 1
	lbu	a5,-25(s0)
	bnez	a5,.L172
	j	.L171
.L174:
	.loc 1 562 5
	nop
.L171:
	.loc 1 563 16
	lui	a5,%hi(irqCount)
	lw	a5,%lo(irqCount)(a5)
	sw	a5,-24(s0)
	.loc 1 564 4
	lw	a5,-20(s0)
	lw	a5,4(a5)
	jalr	a5
.LVL9:
.L168:
	.loc 1 553 3
	j	.L173
	.cfi_endproc
.LFE31:
	.size	_main, .-_main
	.section	.rodata
	.align	3
.LC11:
	.word	0
	.word	1082720256
	.align	3
.LC12:
	.word	0
	.word	1085087744
	.align	3
.LC13:
	.word	0
	.word	1081999360
	.align	3
.LC14:
	.word	0
	.word	1085024256
	.text
.Letext0:
	.file 2 "c:\\gccriscv\\8.2.0\\riscv-none-embed\\include\\machine\\_default_types.h"
	.file 3 "c:\\gccriscv\\8.2.0\\riscv-none-embed\\include\\sys\\_stdint.h"
	.file 4 "murax.h"
	.file 5 "c:\\gccriscv\\8.2.0\\riscv-none-embed\\include\\ctype.h"
	.file 6 "xprintf.h"
	.file 7 "ff.h"