	.file	"main.c"
	.option nopic
	.text
.Ltext0:
	.cfi_sections	.debug_frame
	.section	.text.read_u32,"ax",@progbits
	.align	1
	.type	read_u32, @function
read_u32:
.LFB0:
	.file 1 "bsp/io.h"
	.loc 1 6 40
	.cfi_startproc
	addi	sp,sp,-32
	.cfi_def_cfa_offset 32
	sw	s0,28(sp)
	.cfi_offset 8, -4
	addi	s0,sp,32
	.cfi_def_cfa 8, 0
	sw	a0,-20(s0)
	.loc 1 7 14
	lw	a5,-20(s0)
	.loc 1 7 12
	lw	a5,0(a5)
	.loc 1 8 1
	mv	a0,a5
	lw	s0,28(sp)
	.cfi_restore 8
	addi	sp,sp,32
	.cfi_def_cfa_register 2
	jr	ra
	.cfi_endproc
.LFE0:
	.size	read_u32, .-read_u32
	.section	.text.write_u32,"ax",@progbits
	.align	1
	.type	write_u32, @function
write_u32:
.LFB1:
	.loc 1 10 52
	.cfi_startproc
	addi	sp,sp,-32
	.cfi_def_cfa_offset 32
	sw	s0,28(sp)
	.cfi_offset 8, -4
	addi	s0,sp,32
	.cfi_def_cfa 8, 0
	sw	a0,-20(s0)
	sw	a1,-24(s0)
	.loc 1 11 7
	lw	a5,-24(s0)
	.loc 1 11 32
	lw	a4,-20(s0)
	sw	a4,0(a5)
	.loc 1 12 1
	nop
	lw	s0,28(sp)
	.cfi_restore 8
	addi	sp,sp,32
	.cfi_def_cfa_register 2
	jr	ra
	.cfi_endproc
.LFE1:
	.size	write_u32, .-write_u32
	.section	.text.write_u32_ad,"ax",@progbits
	.align	1
	.type	write_u32_ad, @function
write_u32_ad:
.LFB6:
	.loc 1 30 55
	.cfi_startproc
	addi	sp,sp,-32
	.cfi_def_cfa_offset 32
	sw	s0,28(sp)
	.cfi_offset 8, -4
	addi	s0,sp,32
	.cfi_def_cfa 8, 0
	sw	a0,-20(s0)
	sw	a1,-24(s0)
	.loc 1 31 7
	lw	a5,-20(s0)
	.loc 1 31 32
	lw	a4,-24(s0)
	sw	a4,0(a5)
	.loc 1 32 1
	nop
	lw	s0,28(sp)
	.cfi_restore 8
	addi	sp,sp,32
	.cfi_def_cfa_register 2
	jr	ra
	.cfi_endproc
.LFE6:
	.size	write_u32_ad, .-write_u32_ad
	.section	.text.uart_writeAvailability,"ax",@progbits
	.align	1
	.type	uart_writeAvailability, @function
uart_writeAvailability:
.LFB7:
	.file 2 "bsp/uart.h"
	.loc 2 22 43
	.cfi_startproc
	addi	sp,sp,-32
	.cfi_def_cfa_offset 32
	sw	ra,28(sp)
	sw	s0,24(sp)
	.cfi_offset 1, -4
	.cfi_offset 8, -8
	addi	s0,sp,32
	.cfi_def_cfa 8, 0
	sw	a0,-20(s0)
	.loc 2 23 13
	lw	a5,-20(s0)
	addi	a5,a5,4
	mv	a0,a5
	call	read_u32
	mv	a5,a0
	.loc 2 23 34
	srli	a5,a5,16
	.loc 2 23 41
	andi	a5,a5,255
	.loc 2 24 1
	mv	a0,a5
	lw	ra,28(sp)
	.cfi_restore 1
	lw	s0,24(sp)
	.cfi_restore 8
	addi	sp,sp,32
	.cfi_def_cfa_register 2
	jr	ra
	.cfi_endproc
.LFE7:
	.size	uart_writeAvailability, .-uart_writeAvailability
	.section	.text.uart_readOccupancy,"ax",@progbits
	.align	1
	.type	uart_readOccupancy, @function
uart_readOccupancy:
.LFB8:
	.loc 2 25 39
	.cfi_startproc
	addi	sp,sp,-32
	.cfi_def_cfa_offset 32
	sw	ra,28(sp)
	sw	s0,24(sp)
	.cfi_offset 1, -4
	.cfi_offset 8, -8
	addi	s0,sp,32
	.cfi_def_cfa 8, 0
	sw	a0,-20(s0)
	.loc 2 26 12
	lw	a5,-20(s0)
	addi	a5,a5,4
	mv	a0,a5
	call	read_u32
	mv	a5,a0
	.loc 2 26 33
	srli	a5,a5,24
	.loc 2 27 1
	mv	a0,a5
	lw	ra,28(sp)
	.cfi_restore 1
	lw	s0,24(sp)
	.cfi_restore 8
	addi	sp,sp,32
	.cfi_def_cfa_register 2
	jr	ra
	.cfi_endproc
.LFE8:
	.size	uart_readOccupancy, .-uart_readOccupancy
	.section	.text.uart_write,"ax",@progbits
	.align	1
	.type	uart_write, @function
uart_write:
.LFB9:
	.loc 2 29 43
	.cfi_startproc
	addi	sp,sp,-32
	.cfi_def_cfa_offset 32
	sw	ra,28(sp)
	sw	s0,24(sp)
	.cfi_offset 1, -4
	.cfi_offset 8, -8
	addi	s0,sp,32
	.cfi_def_cfa 8, 0
	sw	a0,-20(s0)
	mv	a5,a1
	sb	a5,-21(s0)
	.loc 2 30 10
	nop
.L10:
	.loc 2 30 11 discriminator 1
	lw	a0,-20(s0)
	call	uart_writeAvailability
	mv	a5,a0
	.loc 2 30 10 discriminator 1
	beqz	a5,.L10
	.loc 2 31 5
	lbu	a5,-21(s0)
	lw	a1,-20(s0)
	mv	a0,a5
	call	write_u32
	.loc 2 32 1
	nop
	lw	ra,28(sp)
	.cfi_restore 1
	lw	s0,24(sp)
	.cfi_restore 8
	addi	sp,sp,32
	.cfi_def_cfa_register 2
	jr	ra
	.cfi_endproc
.LFE9:
	.size	uart_write, .-uart_write
	.section	.text.uart_writeStr,"ax",@progbits
	.align	1
	.type	uart_writeStr, @function
uart_writeStr:
.LFB10:
	.loc 2 34 52
	.cfi_startproc
	addi	sp,sp,-32
	.cfi_def_cfa_offset 32
	sw	ra,28(sp)
	sw	s0,24(sp)
	.cfi_offset 1, -4
	.cfi_offset 8, -8
	addi	s0,sp,32
	.cfi_def_cfa 8, 0
	sw	a0,-20(s0)
	sw	a1,-24(s0)
	.loc 2 35 10
	j	.L12
.L13:
	.loc 2 35 37 discriminator 2
	lw	a5,-24(s0)
	addi	a4,a5,1
	sw	a4,-24(s0)
	.loc 2 35 17 discriminator 2
	lbu	a5,0(a5)
	mv	a1,a5
	lw	a0,-20(s0)
	call	uart_write
.L12:
	.loc 2 35 11 discriminator 1
	lw	a5,-24(s0)
	lbu	a5,0(a5)
	.loc 2 35 10 discriminator 1
	bnez	a5,.L13
	.loc 2 36 1
	nop
	lw	ra,28(sp)
	.cfi_restore 1
	lw	s0,24(sp)
	.cfi_restore 8
	addi	sp,sp,32
	.cfi_def_cfa_register 2
	jr	ra
	.cfi_endproc
.LFE10:
	.size	uart_writeStr, .-uart_writeStr
	.section	.text.uart_writeHex,"ax",@progbits
	.align	1
	.type	uart_writeHex, @function
uart_writeHex:
.LFB11:
	.loc 2 38 46
	.cfi_startproc
	addi	sp,sp,-48
	.cfi_def_cfa_offset 48
	sw	ra,44(sp)
	sw	s0,40(sp)
	.cfi_offset 1, -4
	.cfi_offset 8, -8
	addi	s0,sp,48
	.cfi_def_cfa 8, 0
	sw	a0,-36(s0)
	sw	a1,-40(s0)
.LBB2:
	.loc 2 39 13
	li	a5,7
	sw	a5,-20(s0)
	.loc 2 39 5
	j	.L15
.L18:
.LBB3:
	.loc 2 40 30
	lw	a5,-20(s0)
	slli	a5,a5,2
	.loc 2 40 26
	lw	a4,-40(s0)
	sra	a5,a4,a5
	.loc 2 40 13
	andi	a5,a5,15
	sw	a5,-24(s0)
	.loc 2 41 9
	lw	a4,-24(s0)
	li	a5,9
	ble	a4,a5,.L16
	.loc 2 41 45 discriminator 1
	lw	a5,-24(s0)
	andi	a5,a5,0xff
	.loc 2 41 9 discriminator 1
	addi	a5,a5,55
	andi	a5,a5,0xff
	j	.L17
.L16:
	.loc 2 41 56 discriminator 2
	lw	a5,-24(s0)
	andi	a5,a5,0xff
	.loc 2 41 9 discriminator 2
	addi	a5,a5,48
	andi	a5,a5,0xff
.L17:
	.loc 2 41 9 is_stmt 0 discriminator 4
	mv	a1,a5
	lw	a0,-36(s0)
	call	uart_write
.LBE3:
	.loc 2 39 29 is_stmt 1 discriminator 4
	lw	a5,-20(s0)
	addi	a5,a5,-1
	sw	a5,-20(s0)
.L15:
	.loc 2 39 5 discriminator 2
	lw	a5,-20(s0)
	bgez	a5,.L18
.LBE2:
	.loc 2 43 1
	nop
	lw	ra,44(sp)
	.cfi_restore 1
	lw	s0,40(sp)
	.cfi_restore 8
	addi	sp,sp,48
	.cfi_def_cfa_register 2
	jr	ra
	.cfi_endproc
.LFE11:
	.size	uart_writeHex, .-uart_writeHex
	.section	.text.uart_read,"ax",@progbits
	.align	1
	.type	uart_read, @function
uart_read:
.LFB12:
	.loc 2 45 31
	.cfi_startproc
	addi	sp,sp,-32
	.cfi_def_cfa_offset 32
	sw	ra,28(sp)
	sw	s0,24(sp)
	.cfi_offset 1, -4
	.cfi_offset 8, -8
	addi	s0,sp,32
	.cfi_def_cfa 8, 0
	sw	a0,-20(s0)
	.loc 2 46 10
	nop
.L20:
	.loc 2 46 11 discriminator 1
	lw	a0,-20(s0)
	call	uart_readOccupancy
	mv	a5,a0
	.loc 2 46 10 discriminator 1
	beqz	a5,.L20
	.loc 2 47 12
	lw	a0,-20(s0)
	call	read_u32
	mv	a5,a0
	andi	a5,a5,0xff
	.loc 2 48 1
	mv	a0,a5
	lw	ra,28(sp)
	.cfi_restore 1
	lw	s0,24(sp)
	.cfi_restore 8
	addi	sp,sp,32
	.cfi_def_cfa_register 2
	jr	ra
	.cfi_endproc
.LFE12:
	.size	uart_read, .-uart_read
	.section	.text.uart_applyConfig,"ax",@progbits
	.align	1
	.type	uart_applyConfig, @function
uart_applyConfig:
.LFB13:
	.loc 2 50 59
	.cfi_startproc
	addi	sp,sp,-32
	.cfi_def_cfa_offset 32
	sw	ra,28(sp)
	sw	s0,24(sp)
	.cfi_offset 1, -4
	.cfi_offset 8, -8
	addi	s0,sp,32
	.cfi_def_cfa 8, 0
	sw	a0,-20(s0)
	sw	a1,-24(s0)
	.loc 2 51 5
	lw	a5,-24(s0)
	lw	a4,12(a5)
	lw	a5,-20(s0)
	addi	a5,a5,8
	mv	a1,a5
	mv	a0,a4
	call	write_u32
	.loc 2 52 23
	lw	a5,-24(s0)
	lw	a5,0(a5)
	.loc 2 52 39
	addi	a4,a5,-1
	.loc 2 52 54
	lw	a5,-24(s0)
	lw	a5,4(a5)
	.loc 2 52 63
	slli	a5,a5,8
	.loc 2 52 45
	or	a4,a4,a5
	.loc 2 52 78
	lw	a5,-24(s0)
	lw	a5,8(a5)
	.loc 2 52 85
	slli	a5,a5,16
	.loc 2 52 69
	or	a4,a4,a5
	.loc 2 52 5
	lw	a5,-20(s0)
	addi	a5,a5,12
	mv	a1,a5
	mv	a0,a4
	call	write_u32
	.loc 2 53 1
	nop
	lw	ra,28(sp)
	.cfi_restore 1
	lw	s0,24(sp)
	.cfi_restore 8
	addi	sp,sp,32
	.cfi_def_cfa_register 2
	jr	ra
	.cfi_endproc
.LFE13:
	.size	uart_applyConfig, .-uart_applyConfig
	.section	.text.clint_getTimeLow,"ax",@progbits
	.align	1
	.type	clint_getTimeLow, @function
clint_getTimeLow:
.LFB14:
	.file 3 "bsp/clint.h"
	.loc 3 10 44
	.cfi_startproc
	addi	sp,sp,-32
	.cfi_def_cfa_offset 32
	sw	ra,28(sp)
	sw	s0,24(sp)
	.cfi_offset 1, -4
	.cfi_offset 8, -8
	addi	s0,sp,32
	.cfi_def_cfa 8, 0
	sw	a0,-20(s0)
	.loc 3 10 53
	lw	a4,-20(s0)
	li	a5,49152
	addi	a5,a5,-8
	add	a5,a4,a5
	mv	a0,a5
	call	read_u32
	mv	a5,a0
	.loc 3 10 1
	mv	a0,a5
	lw	ra,28(sp)
	.cfi_restore 1
	lw	s0,24(sp)
	.cfi_restore 8
	addi	sp,sp,32
	.cfi_def_cfa_register 2
	jr	ra
	.cfi_endproc
.LFE14:
	.size	clint_getTimeLow, .-clint_getTimeLow
	.section	.text.clint_getTimeHigh,"ax",@progbits
	.align	1
	.type	clint_getTimeHigh, @function
clint_getTimeHigh:
.LFB15:
	.loc 3 11 45
	.cfi_startproc
	addi	sp,sp,-32
	.cfi_def_cfa_offset 32
	sw	ra,28(sp)
	sw	s0,24(sp)
	.cfi_offset 1, -4
	.cfi_offset 8, -8
	addi	s0,sp,32
	.cfi_def_cfa 8, 0
	sw	a0,-20(s0)
	.loc 3 11 54
	lw	a4,-20(s0)
	li	a5,49152
	addi	a5,a5,-4
	add	a5,a4,a5
	mv	a0,a5
	call	read_u32
	mv	a5,a0
	.loc 3 11 1
	mv	a0,a5
	lw	ra,28(sp)
	.cfi_restore 1
	lw	s0,24(sp)
	.cfi_restore 8
	addi	sp,sp,32
	.cfi_def_cfa_register 2
	jr	ra
	.cfi_endproc
.LFE15:
	.size	clint_getTimeHigh, .-clint_getTimeHigh
	.section	.text.clint_setCmp,"ax",@progbits
	.align	1
	.type	clint_setCmp, @function
clint_setCmp:
.LFB16:
	.loc 3 14 54
	.cfi_startproc
	addi	sp,sp,-32
	.cfi_def_cfa_offset 32
	sw	ra,28(sp)
	sw	s0,24(sp)
	sw	s2,20(sp)
	sw	s3,16(sp)
	.cfi_offset 1, -4
	.cfi_offset 8, -8
	.cfi_offset 18, -12
	.cfi_offset 19, -16
	addi	s0,sp,32
	.cfi_def_cfa 8, 0
	sw	a0,-20(s0)
	sw	a1,-32(s0)
	sw	a2,-28(s0)
	sw	a3,-24(s0)
	.loc 3 15 17
	lw	a4,-24(s0)
	li	a5,4096
	addi	a5,a5,-2048
	add	a5,a4,a5
	slli	a5,a5,3
	.loc 3 15 7
	lw	a4,-20(s0)
	add	a5,a4,a5
	sw	a5,-20(s0)
	.loc 3 16 5
	lw	a5,-20(s0)
	addi	a5,a5,4
	mv	a1,a5
	li	a0,-1
	call	write_u32
	.loc 3 17 5
	lw	a5,-32(s0)
	lw	a1,-20(s0)
	mv	a0,a5
	call	write_u32
	.loc 3 18 19
	lw	a5,-28(s0)
	srli	s2,a5,0
	li	s3,0
	.loc 3 18 5
	mv	a4,s2
	lw	a5,-20(s0)
	addi	a5,a5,4
	mv	a1,a5
	mv	a0,a4
	call	write_u32
	.loc 3 19 1
	nop
	lw	ra,28(sp)
	.cfi_restore 1
	lw	s0,24(sp)
	.cfi_restore 8
	lw	s2,20(sp)
	.cfi_restore 18
	lw	s3,16(sp)
	.cfi_restore 19
	addi	sp,sp,32
	.cfi_def_cfa_register 2
	jr	ra
	.cfi_endproc
.LFE16:
	.size	clint_setCmp, .-clint_setCmp
	.section	.text.clint_getTime,"ax",@progbits
	.align	1
	.type	clint_getTime, @function
clint_getTime:
.LFB17:
	.loc 3 21 32
	.cfi_startproc
	addi	sp,sp,-80
	.cfi_def_cfa_offset 80
	sw	ra,76(sp)
	sw	s0,72(sp)
	sw	s2,68(sp)
	sw	s3,64(sp)
	sw	s4,60(sp)
	sw	s5,56(sp)
	sw	s6,52(sp)
	sw	s7,48(sp)
	sw	s8,44(sp)
	sw	s9,40(sp)
	.cfi_offset 1, -4
	.cfi_offset 8, -8
	.cfi_offset 18, -12
	.cfi_offset 19, -16
	.cfi_offset 20, -20
	.cfi_offset 21, -24
	.cfi_offset 22, -28
	.cfi_offset 23, -32
	.cfi_offset 24, -36
	.cfi_offset 25, -40
	addi	s0,sp,80
	.cfi_def_cfa 8, 0
	sw	a0,-68(s0)
.L29:
	.loc 3 26 14 discriminator 1
	lw	a0,-68(s0)
	call	clint_getTimeHigh
	sw	a0,-52(s0)
	.loc 3 27 14 discriminator 1
	lw	a0,-68(s0)
	call	clint_getTimeLow
	sw	a0,-56(s0)
	.loc 3 28 14 discriminator 1
	lw	a0,-68(s0)
	call	clint_getTimeHigh
	mv	a4,a0
	.loc 3 28 5 discriminator 1
	lw	a5,-52(s0)
	bne	a5,a4,.L29
	.loc 3 30 14
	lw	a5,-52(s0)
	mv	s8,a5
	li	s9,0
	.loc 3 30 23
	slli	s3,s8,0
	li	s2,0
	.loc 3 30 30
	lw	a5,-56(s0)
	mv	s4,a5
	li	s5,0
	or	s6,s2,s4
	or	s7,s3,s5
	mv	a5,s6
	mv	a6,s7
	.loc 3 31 1
	mv	a0,a5
	mv	a1,a6
	lw	ra,76(sp)
	.cfi_restore 1
	lw	s0,72(sp)
	.cfi_restore 8
	lw	s2,68(sp)
	.cfi_restore 18
	lw	s3,64(sp)
	.cfi_restore 19
	lw	s4,60(sp)
	.cfi_restore 20
	lw	s5,56(sp)
	.cfi_restore 21
	lw	s6,52(sp)
	.cfi_restore 22
	lw	s7,48(sp)
	.cfi_restore 23
	lw	s8,44(sp)
	.cfi_restore 24
	lw	s9,40(sp)
	.cfi_restore 25
	addi	sp,sp,80
	.cfi_def_cfa_register 2
	jr	ra
	.cfi_endproc
.LFE17:
	.size	clint_getTime, .-clint_getTime
	.globl	__udivsi3
	.globl	__mulsi3
	.section	.text.clint_uDelay,"ax",@progbits
	.align	1
	.type	clint_uDelay, @function
clint_uDelay:
.LFB18:
	.loc 3 34 52
	.cfi_startproc
	addi	sp,sp,-48
	.cfi_def_cfa_offset 48
	sw	ra,44(sp)
	sw	s0,40(sp)
	sw	s1,36(sp)
	.cfi_offset 1, -4
	.cfi_offset 8, -8
	.cfi_offset 9, -12
	addi	s0,sp,48
	.cfi_def_cfa 8, 0
	sw	a0,-36(s0)
	sw	a1,-40(s0)
	sw	a2,-44(s0)
	.loc 3 35 9
	lw	a4,-40(s0)
	li	a5,999424
	addi	a1,a5,576
	mv	a0,a4
	call	__udivsi3
.LVL0:
	mv	a5,a0
	sw	a5,-20(s0)
	.loc 3 36 17
	lw	a0,-44(s0)
	call	clint_getTimeLow
	mv	s1,a0
	.loc 3 36 45
	lw	a1,-20(s0)
	lw	a0,-36(s0)
	call	__mulsi3
.LVL1:
	mv	a5,a0
	.loc 3 36 9
	add	a5,s1,a5
	sw	a5,-24(s0)
	.loc 3 37 10
	nop
.L32:
	.loc 3 37 28 discriminator 1
	lw	a0,-44(s0)
	call	clint_getTimeLow
	mv	a4,a0
	.loc 3 37 26 discriminator 1
	lw	a5,-24(s0)
	sub	a5,a5,a4
	.loc 3 37 10 discriminator 1
	bgez	a5,.L32
	.loc 3 38 1
	nop
	lw	ra,44(sp)
	.cfi_restore 1
	lw	s0,40(sp)
	.cfi_restore 8
	lw	s1,36(sp)
	.cfi_restore 9
	addi	sp,sp,48
	.cfi_def_cfa_register 2
	jr	ra
	.cfi_endproc
.LFE18:
	.size	clint_uDelay, .-clint_uDelay
	.section	.text.gpio_setOutput,"ax",@progbits
	.align	1
	.type	gpio_setOutput, @function
gpio_setOutput:
.LFB21:
	.file 4 "bsp/gpio.h"
	.loc 4 17 54
	.cfi_startproc
	addi	sp,sp,-32
	.cfi_def_cfa_offset 32
	sw	ra,28(sp)
	sw	s0,24(sp)
	.cfi_offset 1, -4
	.cfi_offset 8, -8
	addi	s0,sp,32
	.cfi_def_cfa 8, 0
	sw	a0,-20(s0)
	sw	a1,-24(s0)
	.loc 4 17 56
	lw	a5,-20(s0)
	addi	a5,a5,4
	mv	a1,a5
	lw	a0,-24(s0)
	call	write_u32
	.loc 4 17 1
	nop
	lw	ra,28(sp)
	.cfi_restore 1
	lw	s0,24(sp)
	.cfi_restore 8
	addi	sp,sp,32
	.cfi_def_cfa_register 2
	jr	ra
	.cfi_endproc
.LFE21:
	.size	gpio_setOutput, .-gpio_setOutput
	.section	.text.gpio_setOutputEnable,"ax",@progbits
	.align	1
	.type	gpio_setOutputEnable, @function
gpio_setOutputEnable:
.LFB23:
	.loc 4 19 60
	.cfi_startproc
	addi	sp,sp,-32
	.cfi_def_cfa_offset 32
	sw	ra,28(sp)
	sw	s0,24(sp)
	.cfi_offset 1, -4
	.cfi_offset 8, -8
	addi	s0,sp,32
	.cfi_def_cfa 8, 0
	sw	a0,-20(s0)
	sw	a1,-24(s0)
	.loc 4 19 62
	lw	a5,-20(s0)
	addi	a5,a5,8
	mv	a1,a5
	lw	a0,-24(s0)
	call	write_u32
	.loc 4 19 1
	nop
	lw	ra,28(sp)
	.cfi_restore 1
	lw	s0,24(sp)
	.cfi_restore 8
	addi	sp,sp,32
	.cfi_def_cfa_register 2
	jr	ra
	.cfi_endproc
.LFE23:
	.size	gpio_setOutputEnable, .-gpio_setOutputEnable
	.globl	__divsi3
	.section	.text.t2c,"ax",@progbits
	.align	1
	.type	t2c, @function
t2c:
.LFB28:
	.file 5 "bsp/sdram.h"
	.loc 5 82 95
	.cfi_startproc
	addi	sp,sp,-48
	.cfi_def_cfa_offset 48
	sw	ra,44(sp)
	sw	s0,40(sp)
	.cfi_offset 1, -4
	.cfi_offset 8, -8
	addi	s0,sp,48
	.cfi_def_cfa 8, 0
	sw	a0,-20(s0)
	sw	a1,-24(s0)
	sw	a2,-28(s0)
	sw	a3,-32(s0)
	sw	a4,-36(s0)
	.loc 5 83 36
	lw	a4,-28(s0)
	lw	a5,-32(s0)
	add	a5,a4,a5
	.loc 5 83 50
	addi	a5,a5,-1
	.loc 5 83 54
	lw	a1,-32(s0)
	mv	a0,a5
	call	__divsi3
.LVL2:
	mv	a5,a0
	mv	a4,a5
	.loc 5 83 24
	lw	a5,-20(s0)
	add	a4,a4,a5
	.loc 5 83 67
	lw	a5,-24(s0)
	sub	a4,a4,a5
	.loc 5 83 79
	lw	a5,-36(s0)
	add	a5,a4,a5
	.loc 5 83 93
	addi	a5,a5,-1
	.loc 5 83 98
	lw	a1,-36(s0)
	mv	a0,a5
	call	__divsi3
.LVL3:
	mv	a5,a0
	.loc 5 84 1
	mv	a0,a5
	lw	ra,44(sp)
	.cfi_restore 1
	lw	s0,40(sp)
	.cfi_restore 8
	addi	sp,sp,48
	.cfi_def_cfa_register 2
	jr	ra
	.cfi_endproc
.LFE28:
	.size	t2c, .-t2c
	.section	.text.sat,"ax",@progbits
	.align	1
	.type	sat, @function
sat:
.LFB29:
	.loc 5 86 23
	.cfi_startproc
	addi	sp,sp,-32
	.cfi_def_cfa_offset 32
	sw	s0,28(sp)
	.cfi_offset 8, -4
	addi	s0,sp,32
	.cfi_def_cfa 8, 0
	sw	a0,-20(s0)
	.loc 5 87 31
	lw	a5,-20(s0)
	bgez	a5,.L38
	li	a5,0
.L38:
	.loc 5 88 1
	mv	a0,a5
	lw	s0,28(sp)
	.cfi_restore 8
	addi	sp,sp,32
	.cfi_def_cfa_register 2
	jr	ra
	.cfi_endproc
.LFE29:
	.size	sat, .-sat
	.section	.rodata
	.align	2
	.type	MT41K128M16JT_125_ps, @object
	.size	MT41K128M16JT_125_ps, 44
MT41K128M16JT_125_ps:
	.word	3
	.word	160000
	.word	35000
	.word	13750
	.word	13750
	.word	7500
	.word	15000
	.word	7500
	.word	7500
	.word	7800000
	.word	40000
	.align	2
	.type	MT47H64M16HR_25_ps, @object
	.size	MT47H64M16HR_25_ps, 44
MT47H64M16HR_25_ps:
	.word	2
	.word	127500
	.word	40000
	.word	15000
	.word	15000
	.word	7500
	.word	15000
	.word	7500
	.word	10000
	.word	7800000
	.word	45000
	.align	2
	.type	MT48LC16M16A2_6A_ps, @object
	.size	MT48LC16M16A2_6A_ps, 44
MT48LC16M16A2_6A_ps:
	.word	0
	.word	60000
	.word	42000
	.word	18000
	.word	18000
	.word	0
	.word	6000
	.word	0
	.word	12000
	.word	7812500
	.word	0
	.align	2
	.type	AS4C32M16SB_7TCN_ps, @object
	.size	AS4C32M16SB_7TCN_ps, 44
AS4C32M16SB_7TCN_ps:
	.word	0
	.word	63000
	.word	42000
	.word	21000
	.word	21000
	.word	0
	.word	7000
	.word	0
	.word	14000
	.word	7800000
	.word	0
	.section	.text.sdram_udelay,"ax",@progbits
	.align	1
	.type	sdram_udelay, @function
sdram_udelay:
.LFB30:
	.loc 5 146 33
	.cfi_startproc
	addi	sp,sp,-32
	.cfi_def_cfa_offset 32
	sw	ra,28(sp)
	sw	s0,24(sp)
	.cfi_offset 1, -4
	.cfi_offset 8, -8
	addi	s0,sp,32
	.cfi_def_cfa 8, 0
	sw	a0,-20(s0)
	.loc 5 148 5
	li	a2,-256901120
	li	a5,49999872
	addi	a1,a5,128
	lw	a0,-20(s0)
	call	clint_uDelay
	.loc 5 153 1
	nop
	lw	ra,28(sp)
	.cfi_restore 1
	lw	s0,24(sp)
	.cfi_restore 8
	addi	sp,sp,32
	.cfi_def_cfa_register 2
	jr	ra
	.cfi_endproc
.LFE30:
	.size	sdram_udelay, .-sdram_udelay
	.section	.text.sdram_command,"ax",@progbits
	.align	1
	.type	sdram_command, @function
sdram_command:
.LFB31:
	.loc 5 155 68
	.cfi_startproc
	addi	sp,sp,-32
	.cfi_def_cfa_offset 32
	sw	ra,28(sp)
	sw	s0,24(sp)
	.cfi_offset 1, -4
	.cfi_offset 8, -8
	addi	s0,sp,32
	.cfi_def_cfa 8, 0
	sw	a0,-20(s0)
	sw	a1,-24(s0)
	sw	a2,-28(s0)
	sw	a3,-32(s0)
	.loc 5 156 5
	lw	a5,-20(s0)
	addi	a5,a5,268
	lw	a1,-28(s0)
	mv	a0,a5
	call	write_u32_ad
	.loc 5 157 5
	lw	a5,-20(s0)
	addi	a5,a5,264
	lw	a1,-32(s0)
	mv	a0,a5
	call	write_u32_ad
	.loc 5 158 5
	lw	a5,-20(s0)
	addi	a5,a5,260
	lw	a1,-24(s0)
	mv	a0,a5
	call	write_u32_ad
	.loc 5 159 5
	lw	a5,-20(s0)
	addi	a5,a5,256
	li	a1,0
	mv	a0,a5
	call	write_u32_ad
	.loc 5 160 5
	li	a0,1
	call	sdram_udelay
	.loc 5 161 1
	nop
	lw	ra,28(sp)
	.cfi_restore 1
	lw	s0,24(sp)
	.cfi_restore 8
	addi	sp,sp,32
	.cfi_def_cfa_register 2
	jr	ra
	.cfi_endproc
.LFE31:
	.size	sdram_command, .-sdram_command
	.globl	__umodsi3
	.section	.text.sdram_init,"ax",@progbits
	.align	1
	.type	sdram_init, @function
sdram_init:
.LFB32:
	.loc 5 164 124
	.cfi_startproc
	addi	sp,sp,-160
	.cfi_def_cfa_offset 160
	sw	ra,156(sp)
	sw	s0,152(sp)
	sw	s1,148(sp)
	sw	s2,144(sp)
	sw	s3,140(sp)
	sw	s4,136(sp)
	.cfi_offset 1, -4
	.cfi_offset 8, -8
	.cfi_offset 9, -12
	.cfi_offset 18, -16
	.cfi_offset 19, -20
	.cfi_offset 20, -24
	addi	s0,sp,160
	.cfi_def_cfa 8, 0
	sw	a0,-132(s0)
	sw	a1,-136(s0)
	sw	a2,-140(s0)
	mv	s1,a3
	sw	a4,-144(s0)
	sw	a5,-148(s0)
	sw	a6,-152(s0)
	.loc 5 165 30
	lw	a4,-136(s0)
	lw	a5,-148(s0)
	add	a5,a4,a5
	.loc 5 165 42
	addi	a5,a5,-1
	.loc 5 165 9
	lw	a1,-148(s0)
	mv	a0,a5
	call	__udivsi3
.LVL4:
	mv	a5,a0
	sw	a5,-48(s0)
	.loc 5 166 36
	lw	a1,-148(s0)
	lw	a0,-48(s0)
	call	__mulsi3
.LVL5:
	mv	a5,a0
	mv	a4,a5
	.loc 5 166 9
	lw	a5,-136(s0)
	sub	a5,a4,a5
	sw	a5,-52(s0)
	.loc 5 167 31
	lw	a4,-140(s0)
	lw	a5,-148(s0)
	add	a5,a4,a5
	.loc 5 167 43
	addi	a5,a5,-1
	.loc 5 167 9
	lw	a1,-148(s0)
	mv	a0,a5
	call	__udivsi3
.LVL6:
	mv	a5,a0
	sw	a5,-56(s0)
	.loc 5 168 38
	lw	a1,-148(s0)
	lw	a0,-56(s0)
	call	__mulsi3
.LVL7:
	mv	a5,a0
	mv	a4,a5
	.loc 5 168 9
	lw	a5,-140(s0)
	sub	a5,a4,a5
	sw	a5,-60(s0)
	.loc 5 169 9
	sw	zero,-64(s0)
	.loc 5 170 9
	sw	zero,-68(s0)
	.loc 5 171 9
	lw	a1,-148(s0)
	lw	a0,-144(s0)
	call	__mulsi3
.LVL8:
	mv	a5,a0
	sw	a5,-72(s0)
	.loc 5 175 9
	sw	zero,-36(s0)
	.loc 5 176 9
	sw	zero,-40(s0)
	.loc 5 177 9
	li	a5,1
	sw	a5,-76(s0)
	.loc 5 178 18
	lw	a5,0(s1)
	li	a4,2
	bgtu	a5,a4,.L43
	bnez	a5,.L44
	j	.L53
.L43:
	li	a4,3
	beq	a5,a4,.L46
	j	.L47
.L53:
	.loc 5 180 19
	li	a5,1
	sw	a5,-40(s0)
	.loc 5 181 9
	j	.L47
.L44:
	.loc 5 184 19
	li	a5,2
	sw	a5,-40(s0)
	.loc 5 185 9
	j	.L47
.L46:
	.loc 5 187 18
	li	a5,4
	sw	a5,-36(s0)
	.loc 5 188 19
	li	a5,2
	sw	a5,-40(s0)
	.loc 5 189 9
	nop
.L47:
	.loc 5 192 33
	lw	a1,-148(s0)
	lw	a0,-152(s0)
	call	__mulsi3
.LVL9:
	mv	a5,a0
	.loc 5 192 9
	sw	a5,-80(s0)
	.loc 5 193 32
	lw	a5,36(s1)
	.loc 5 193 16
	mv	a2,a5
	lw	a5,-152(s0)
	lw	a4,-148(s0)
	mv	a3,a5
	li	a1,0
	li	a0,0
	call	t2c
	sw	a0,-84(s0)
	.loc 5 194 16
	lw	a5,-64(s0)
	lw	a1,-68(s0)
	.loc 5 194 57
	lw	a4,8(s1)
	.loc 5 194 16
	mv	a2,a4
	lw	a3,-152(s0)
	lw	a4,-148(s0)
	mv	a0,a5
	call	t2c
	sw	a0,-88(s0)
	.loc 5 195 15
	lw	a5,-68(s0)
	lw	a1,-64(s0)
	.loc 5 195 56
	lw	a4,12(s1)
	.loc 5 195 15
	mv	a2,a4
	lw	a3,-152(s0)
	lw	a4,-148(s0)
	mv	a0,a5
	call	t2c
	sw	a0,-92(s0)
	.loc 5 196 16
	lw	a5,-64(s0)
	lw	a1,-64(s0)
	.loc 5 196 54
	lw	a4,4(s1)
	.loc 5 196 16
	mv	a2,a4
	lw	a3,-152(s0)
	lw	a4,-148(s0)
	mv	a0,a5
	call	t2c
	sw	a0,-96(s0)
	.loc 5 197 16
	lw	s2,-64(s0)
	lw	s3,-64(s0)
	.loc 5 197 74
	lw	a1,-152(s0)
	lw	a0,-36(s0)
	call	__mulsi3
.LVL10:
	mv	a5,a0
	.loc 5 197 57
	lw	a4,32(s1)
	.loc 5 197 104
	bgeu	a5,a4,.L48
	mv	a5,a4
.L48:
	.loc 5 197 16
	mv	a2,a5
	lw	a5,-152(s0)
	lw	a4,-148(s0)
	mv	a3,a5
	mv	a1,s3
	mv	a0,s2
	call	t2c
	sw	a0,-100(s0)
	.loc 5 198 16
	lw	a0,-64(s0)
	.loc 5 198 79
	lw	a4,-60(s0)
	lw	a5,-52(s0)
	bleu	a5,a4,.L49
	mv	a5,a4
.L49:
	.loc 5 198 16
	mv	a1,a5
	.loc 5 198 101
	lw	a5,16(s1)
	.loc 5 198 16
	mv	a2,a5
	lw	a5,-152(s0)
	lw	a4,-148(s0)
	mv	a3,a5
	call	t2c
	sw	a0,-104(s0)
	.loc 5 199 16
	lw	s2,-52(s0)
	lw	s3,-60(s0)
	.loc 5 199 48
	lw	a4,-136(s0)
	lw	a5,-72(s0)
	add	a4,a4,a5
	.loc 5 199 51
	lw	a5,-40(s0)
	add	a4,a4,a5
	.loc 5 199 61
	lw	a5,-140(s0)
	sub	a5,a4,a5
	.loc 5 199 65
	lw	a1,-152(s0)
	mv	a0,a5
	call	__mulsi3
.LVL11:
	mv	a5,a0
	.loc 5 199 16
	mv	a2,a5
	lw	a5,-152(s0)
	lw	a4,-148(s0)
	mv	a3,a5
	mv	a1,s3
	mv	a0,s2
	call	t2c
	sw	a0,-108(s0)
	.loc 5 200 16
	lw	s2,-52(s0)
	lw	s3,-68(s0)
	.loc 5 200 69
	lw	a1,-152(s0)
	lw	a0,-72(s0)
	call	__mulsi3
.LVL12:
	mv	a5,a0
	.loc 5 200 58
	lw	a4,28(s1)
	.loc 5 200 99
	bgeu	a5,a4,.L50
	mv	a5,a4
.L50:
	.loc 5 200 16
	mv	a2,a5
	lw	a5,-152(s0)
	lw	a4,-148(s0)
	mv	a3,a5
	mv	a1,s3
	mv	a0,s2
	call	t2c
	sw	a0,-112(s0)
	.loc 5 201 16
	lw	s3,-60(s0)
	lw	s4,-52(s0)
	.loc 5 201 65
	lw	a1,-152(s0)
	lw	a0,-72(s0)
	call	__mulsi3
.LVL13:
	mv	a5,a0
	mv	a4,a5
	.loc 5 201 54
	lw	a5,20(s1)
	.loc 5 201 95
	mv	s2,a4
	bgeu	s2,a5,.L51
	mv	s2,a5
.L51:
	.loc 5 201 120
	lw	a4,-140(s0)
	lw	a5,-72(s0)
	add	a5,a4,a5
	.loc 5 201 124
	lw	a1,-152(s0)
	mv	a0,a5
	call	__mulsi3
.LVL14:
	mv	a5,a0
	.loc 5 201 115
	add	a5,s2,a5
	.loc 5 201 16
	mv	a2,a5
	lw	a5,-152(s0)
	lw	a4,-148(s0)
	mv	a3,a5
	mv	a1,s4
	mv	a0,s3
	call	t2c
	sw	a0,-116(s0)
	.loc 5 202 16
	lw	s3,-60(s0)
	lw	s4,-68(s0)
	.loc 5 202 56
	lw	s2,24(s1)
	.loc 5 202 66
	lw	a4,-140(s0)
	lw	a5,-72(s0)
	add	a4,a4,a5
	.loc 5 202 69
	lw	a5,-76(s0)
	add	a5,a4,a5
	.loc 5 202 78
	addi	a5,a5,-1
	.loc 5 202 81
	lw	a1,-152(s0)
	mv	a0,a5
	call	__mulsi3
.LVL15:
	mv	a5,a0
	.loc 5 202 61
	add	a5,s2,a5
	.loc 5 202 16
	mv	a2,a5
	lw	a5,-152(s0)
	lw	a4,-148(s0)
	mv	a3,a5
	mv	a1,s4
	mv	a0,s3
	call	t2c
	sw	a0,-120(s0)
	.loc 5 203 16
	lw	a5,-64(s0)
	lw	a1,-64(s0)
	.loc 5 203 54
	lw	a4,40(s1)
	.loc 5 203 16
	mv	a2,a4
	lw	a3,-152(s0)
	lw	a4,-148(s0)
	mv	a0,a5
	call	t2c
	sw	a0,-124(s0)
	.loc 5 205 32
	lw	a5,-68(s0)
	slli	a4,a5,24
	.loc 5 205 54
	lw	a5,-64(s0)
	slli	a5,a5,16
	.loc 5 205 39
	or	a4,a4,a5
	.loc 5 205 74
	lw	a5,-52(s0)
	slli	a5,a5,8
	.loc 5 205 61
	or	a4,a4,a5
	.loc 5 205 5
	lw	a5,-60(s0)
	or	a4,a4,a5
	lw	a5,-132(s0)
	addi	a5,a5,4
	mv	a1,a5
	mv	a0,a4
	call	write_u32
	.loc 5 206 5
	lw	a5,-132(s0)
	addi	a5,a5,8
	mv	a1,a5
	li	a0,0
	call	write_u32
	.loc 5 207 5
	lw	a1,-132(s0)
	li	a0,2
	call	write_u32
	.loc 5 209 19
	lw	a5,-84(s0)
	addi	a5,a5,-1
	.loc 5 209 5
	mv	a4,a5
	lw	a5,-132(s0)
	addi	a5,a5,16
	mv	a1,a5
	mv	a0,a4
	call	write_u32
	.loc 5 210 16
	lw	a5,-100(s0)
	addi	a5,a5,-2
	mv	a0,a5
	call	sat
	mv	a5,a0
	.loc 5 210 28
	slli	s1,a5,24
	.loc 5 210 38
	lw	a5,-96(s0)
	addi	a5,a5,-2
	mv	a0,a5
	call	sat
	mv	a5,a0
	.loc 5 210 50
	slli	a5,a5,16
	.loc 5 210 35
	or	s1,s1,a5
	.loc 5 210 60
	lw	a5,-92(s0)
	addi	a5,a5,-2
	mv	a0,a5
	call	sat
	mv	a5,a0
	.loc 5 210 71
	slli	a5,a5,8
	.loc 5 210 57
	or	s1,s1,a5
	.loc 5 210 92
	lw	a5,-88(s0)
	addi	a5,a5,-2
	mv	a0,a5
	call	sat
	mv	a5,a0
	.loc 5 210 5
	or	a4,s1,a5
	lw	a5,-132(s0)
	addi	a5,a5,32
	mv	a1,a5
	mv	a0,a4
	call	write_u32
	.loc 5 211 5
	lw	a5,-104(s0)
	addi	a5,a5,-2
	mv	a0,a5
	call	sat
	mv	a4,a0
	lw	a5,-132(s0)
	addi	a5,a5,36
	mv	a1,a5
	mv	a0,a4
	call	write_u32
	.loc 5 212 16
	lw	a5,-120(s0)
	addi	a5,a5,-2
	mv	a0,a5
	call	sat
	mv	a5,a0
	.loc 5 212 28
	slli	s1,a5,24
	.loc 5 212 38
	lw	a5,-116(s0)
	addi	a5,a5,-2
	mv	a0,a5
	call	sat
	mv	a5,a0
	.loc 5 212 50
	slli	a5,a5,16
	.loc 5 212 35
	or	s1,s1,a5
	.loc 5 212 60
	lw	a5,-112(s0)
	addi	a5,a5,-2
	mv	a0,a5
	call	sat
	mv	a5,a0
	.loc 5 212 72
	slli	a5,a5,8
	.loc 5 212 57
	or	s1,s1,a5
	.loc 5 212 93
	lw	a5,-108(s0)
	addi	a5,a5,-2
	mv	a0,a5
	call	sat
	mv	a5,a0
	.loc 5 212 5
	or	a4,s1,a5
	lw	a5,-132(s0)
	addi	a5,a5,40
	mv	a1,a5
	mv	a0,a4
	call	write_u32
	.loc 5 213 5
	lw	a5,-124(s0)
	addi	a5,a5,-1
	mv	a0,a5
	call	sat
	mv	a4,a0
	lw	a5,-132(s0)
	addi	a5,a5,48
	mv	a1,a5
	mv	a0,a4
	call	write_u32
	.loc 5 215 36
	lw	a5,-60(s0)
	addi	a5,a5,6
	.loc 5 215 40
	lw	a1,-148(s0)
	mv	a0,a5
	call	__umodsi3
.LVL16:
	mv	a5,a0
	mv	a4,a5
	.loc 5 215 21
	li	a5,1
	sll	a5,a5,a4
	.loc 5 215 9
	addi	a5,a5,-1
	sw	a5,-44(s0)
	.loc 5 216 7
	lw	a5,-44(s0)
	bnez	a5,.L52
	.loc 5 216 33 discriminator 1
	lw	a5,-148(s0)
	li	a4,1
	sll	a5,a4,a5
	.loc 5 216 28 discriminator 1
	addi	a5,a5,-1
	sw	a5,-44(s0)
.L52:
	.loc 5 217 28
	lw	a4,-60(s0)
	lw	a5,-148(s0)
	add	a5,a4,a5
	.loc 5 217 40
	addi	a5,a5,5
	.loc 5 217 43
	lw	a1,-148(s0)
	mv	a0,a5
	call	__udivsi3
.LVL17:
	mv	a5,a0
	.loc 5 217 55
	addi	a5,a5,-1
	.loc 5 217 9
	sw	a5,-128(s0)
	.loc 5 218 36
	lw	a5,-44(s0)
	slli	a4,a5,8
	.loc 5 218 26
	lw	a5,-128(s0)
	or	a5,a4,a5
	.loc 5 218 5
	mv	a4,a5
	lw	a5,-132(s0)
	addi	a5,a5,52
	mv	a1,a5
	mv	a0,a4
	call	write_u32
	.loc 5 219 1
	nop
	lw	ra,156(sp)
	.cfi_restore 1
	lw	s0,152(sp)
	.cfi_restore 8
	lw	s1,148(sp)
	.cfi_restore 9
	lw	s2,144(sp)
	.cfi_restore 18
	lw	s3,140(sp)
	.cfi_restore 19
	lw	s4,136(sp)
	.cfi_restore 20
	addi	sp,sp,160
	.cfi_def_cfa_register 2
	jr	ra
	.cfi_endproc
.LFE32:
	.size	sdram_init, .-sdram_init
	.section	.text.sdram_sdr_init,"ax",@progbits
	.align	1
	.type	sdram_sdr_init, @function
sdram_sdr_init:
.LFB33:
	.loc 5 221 83
	.cfi_startproc
	addi	sp,sp,-48
	.cfi_def_cfa_offset 48
	sw	ra,44(sp)
	sw	s0,40(sp)
	.cfi_offset 1, -4
	.cfi_offset 8, -8
	addi	s0,sp,48
	.cfi_def_cfa 8, 0
	sw	a0,-36(s0)
	sw	a1,-40(s0)
	sw	a2,-44(s0)
	sw	a3,-48(s0)
	.loc 5 223 9
	lw	a1,-48(s0)
	lw	a0,-44(s0)
	call	__mulsi3
.LVL18:
	mv	a5,a0
	sw	a5,-24(s0)
	lw	a4,-24(s0)
	li	a5,2
	beq	a4,a5,.L55
	lw	a4,-24(s0)
	li	a5,2
	bgtu	a4,a5,.L56
	lw	a4,-24(s0)
	li	a5,1
	beq	a4,a5,.L57
	j	.L58
.L56:
	lw	a4,-24(s0)
	li	a5,4
	beq	a4,a5,.L59
	lw	a4,-24(s0)
	li	a5,8
	beq	a4,a5,.L60
	j	.L58
.L57:
	.loc 5 225 19
	sw	zero,-20(s0)
	.loc 5 225 5
	j	.L58
.L55:
	.loc 5 226 19
	li	a5,1
	sw	a5,-20(s0)
	.loc 5 226 5
	j	.L58
.L59:
	.loc 5 227 19
	li	a5,2
	sw	a5,-20(s0)
	.loc 5 227 5
	j	.L58
.L60:
	.loc 5 228 19
	li	a5,3
	sw	a5,-20(s0)
	.loc 5 228 5
	nop
.L58:
	.loc 5 231 5
	lw	a5,-40(s0)
	addi	a4,a5,-1
	lw	a5,-36(s0)
	addi	a5,a5,12
	mv	a1,a5
	mv	a0,a4
	call	write_u32
	.loc 5 233 5
	lw	a5,-36(s0)
	addi	a5,a5,272
	mv	a1,a5
	li	a0,0
	call	write_u32
	.loc 5 233 33
	li	a0,100
	call	sdram_udelay
	.loc 5 234 5
	lw	a5,-36(s0)
	addi	a5,a5,272
	mv	a1,a5
	li	a0,2
	call	write_u32
	.loc 5 234 33
	li	a0,100
	call	sdram_udelay
	.loc 5 235 5
	li	a3,1024
	li	a2,0
	li	a1,8
	lw	a0,-36(s0)
	call	sdram_command
	.loc 5 236 5
	li	a3,0
	li	a2,0
	li	a1,16
	lw	a0,-36(s0)
	call	sdram_command
	.loc 5 237 5
	li	a3,0
	li	a2,0
	li	a1,16
	lw	a0,-36(s0)
	call	sdram_command
	.loc 5 238 35
	lw	a5,-40(s0)
	slli	a4,a5,4
	.loc 5 238 5
	lw	a5,-20(s0)
	or	a5,a4,a5
	mv	a3,a5
	li	a2,0
	li	a1,0
	lw	a0,-36(s0)
	call	sdram_command
	.loc 5 239 5
	lw	a1,-36(s0)
	li	a0,1
	call	write_u32
	.loc 5 240 1
	nop
	lw	ra,44(sp)
	.cfi_restore 1
	lw	s0,40(sp)
	.cfi_restore 8
	addi	sp,sp,48
	.cfi_def_cfa_register 2
	jr	ra
	.cfi_endproc
.LFE33:
	.size	sdram_sdr_init, .-sdram_sdr_init
	.section	.text.sdram_ddr2_init,"ax",@progbits
	.align	1
	.type	sdram_ddr2_init, @function
sdram_ddr2_init:
.LFB34:
	.loc 5 242 121
	.cfi_startproc
	addi	sp,sp,-64
	.cfi_def_cfa_offset 64
	sw	ra,60(sp)
	sw	s0,56(sp)
	sw	s1,52(sp)
	.cfi_offset 1, -4
	.cfi_offset 8, -8
	.cfi_offset 9, -12
	addi	s0,sp,64
	.cfi_def_cfa 8, 0
	sw	a0,-36(s0)
	sw	a1,-40(s0)
	mv	s1,a2
	sw	a3,-44(s0)
	sw	a4,-48(s0)
	sw	a5,-52(s0)
	.loc 5 243 9
	sw	zero,-20(s0)
	.loc 5 244 9
	lw	a1,-48(s0)
	lw	a0,-44(s0)
	call	__mulsi3
.LVL19:
	mv	a5,a0
	sw	a5,-24(s0)
	.loc 5 246 5
	lw	a5,-36(s0)
	addi	a5,a5,272
	mv	a1,a5
	li	a0,0
	call	write_u32
	.loc 5 247 5
	li	a0,200
	call	sdram_udelay
	.loc 5 248 5
	lw	a5,-36(s0)
	addi	a5,a5,272
	mv	a1,a5
	li	a0,2
	call	write_u32
	.loc 5 249 5
	li	a0,10
	call	sdram_udelay
	.loc 5 251 26
	lw	a5,-20(s0)
	slli	a5,a5,3
	andi	a5,a5,56
	.loc 5 251 9
	ori	a5,a5,68
	sw	a5,-28(s0)
	.loc 5 252 21
	lw	a4,24(s1)
	.loc 5 252 25
	lw	a5,-52(s0)
	add	a5,a4,a5
	.loc 5 252 37
	addi	a5,a5,-1
	.loc 5 252 9
	lw	a1,-52(s0)
	mv	a0,a5
	call	__udivsi3
.LVL20:
	mv	a5,a0
	sw	a5,-32(s0)
	.loc 5 253 5
	li	a3,1024
	li	a2,0
	li	a1,8
	lw	a0,-36(s0)
	call	sdram_command
	.loc 5 254 5
	li	a3,0
	li	a2,2
	li	a1,0
	lw	a0,-36(s0)
	call	sdram_command
	.loc 5 255 5
	li	a3,0
	li	a2,3
	li	a1,0
	lw	a0,-36(s0)
	call	sdram_command
	.loc 5 256 5
	lw	a3,-28(s0)
	li	a2,1
	li	a1,0
	lw	a0,-36(s0)
	call	sdram_command
	.loc 5 257 5
	li	a3,256
	li	a2,0
	li	a1,0
	lw	a0,-36(s0)
	call	sdram_command
	.loc 5 257 41
	li	a0,20
	call	sdram_udelay
	.loc 5 258 5
	li	a3,1024
	li	a2,0
	li	a1,8
	lw	a0,-36(s0)
	call	sdram_command
	.loc 5 259 5
	li	a3,0
	li	a2,0
	li	a1,16
	lw	a0,-36(s0)
	call	sdram_command
	.loc 5 260 5
	li	a3,0
	li	a2,0
	li	a1,16
	lw	a0,-36(s0)
	call	sdram_command
	.loc 5 261 39
	lw	a5,-32(s0)
	addi	a5,a5,-1
	.loc 5 261 49
	slli	a4,a5,9
	li	a5,4096
	addi	a5,a5,-512
	and	a4,a4,a5
	.loc 5 261 67
	lw	a5,-40(s0)
	slli	a5,a5,4
	andi	a5,a5,112
	.loc 5 261 55
	or	a4,a4,a5
	.loc 5 261 86
	lw	a5,-24(s0)
	srli	a5,a5,3
	andi	a5,a5,1
	.loc 5 261 73
	or	a5,a4,a5
	.loc 5 261 5
	ori	a5,a5,2
	mv	a3,a5
	li	a2,0
	li	a1,0
	lw	a0,-36(s0)
	call	sdram_command
	.loc 5 261 98
	li	a0,20
	call	sdram_udelay
	.loc 5 262 5
	lw	a5,-28(s0)
	ori	a5,a5,896
	mv	a3,a5
	li	a2,1
	li	a1,0
	lw	a0,-36(s0)
	call	sdram_command
	.loc 5 263 5
	lw	a3,-28(s0)
	li	a2,1
	li	a1,0
	lw	a0,-36(s0)
	call	sdram_command
	.loc 5 264 5
	li	a0,10
	call	sdram_udelay
	.loc 5 266 5
	lw	a1,-36(s0)
	li	a0,1
	call	write_u32
	.loc 5 267 1
	nop
	lw	ra,60(sp)
	.cfi_restore 1
	lw	s0,56(sp)
	.cfi_restore 8
	lw	s1,52(sp)
	.cfi_restore 9
	addi	sp,sp,64
	.cfi_def_cfa_register 2
	jr	ra
	.cfi_endproc
.LFE34:
	.size	sdram_ddr2_init, .-sdram_ddr2_init
	.section	.text.sdram_ddr3_init,"ax",@progbits
	.align	1
	.type	sdram_ddr3_init, @function
sdram_ddr3_init:
.LFB35:
	.loc 5 269 92
	.cfi_startproc
	addi	sp,sp,-48
	.cfi_def_cfa_offset 48
	sw	ra,44(sp)
	sw	s0,40(sp)
	.cfi_offset 1, -4
	.cfi_offset 8, -8
	addi	s0,sp,48
	.cfi_def_cfa 8, 0
	sw	a0,-20(s0)
	sw	a1,-24(s0)
	sw	a2,-28(s0)
	sw	a3,-32(s0)
	sw	a4,-36(s0)
	.loc 5 273 5
	lw	a5,-20(s0)
	addi	a5,a5,272
	mv	a1,a5
	li	a0,0
	call	write_u32
	.loc 5 274 5
	li	a0,200
	call	sdram_udelay
	.loc 5 275 5
	lw	a5,-20(s0)
	addi	a5,a5,272
	mv	a1,a5
	li	a0,1
	call	write_u32
	.loc 5 276 5
	li	a0,500
	call	sdram_udelay
	.loc 5 277 5
	lw	a5,-20(s0)
	addi	a5,a5,272
	mv	a1,a5
	li	a0,3
	call	write_u32
	.loc 5 279 46
	lw	a5,-28(s0)
	addi	a5,a5,-5
	.loc 5 279 5
	slli	a5,a5,3
	mv	a3,a5
	li	a2,2
	li	a1,0
	lw	a0,-20(s0)
	call	sdram_command
	.loc 5 280 5
	li	a3,0
	li	a2,3
	li	a1,0
	lw	a0,-20(s0)
	call	sdram_command
	.loc 5 281 5
	li	a3,68
	li	a2,1
	li	a1,0
	lw	a0,-20(s0)
	call	sdram_command
	.loc 5 282 44
	lw	a5,-28(s0)
	addi	a4,a5,-5
	.loc 5 282 40
	lui	a5,%hi(wrToMr.2150)
	addi	a5,a5,%lo(wrToMr.2150)
	add	a5,a4,a5
	lbu	a5,0(a5)
	.loc 5 282 49
	slli	a5,a5,9
	.loc 5 282 55
	ori	a4,a5,256
	.loc 5 282 76
	lw	a5,-24(s0)
	addi	a3,a5,-5
	.loc 5 282 73
	lui	a5,%hi(rlToMr.2151)
	addi	a5,a5,%lo(rlToMr.2151)
	add	a5,a3,a5
	lbu	a5,0(a5)
	.loc 5 282 85
	slli	a5,a5,2
	andi	a5,a5,4
	.loc 5 282 63
	or	a4,a4,a5
	.loc 5 282 104
	lw	a5,-24(s0)
	addi	a3,a5,-5
	.loc 5 282 101
	lui	a5,%hi(rlToMr.2151)
	addi	a5,a5,%lo(rlToMr.2151)
	add	a5,a3,a5
	lbu	a5,0(a5)
	.loc 5 282 115
	slli	a5,a5,3
	andi	a5,a5,112
	.loc 5 282 91
	or	a5,a4,a5
	.loc 5 282 5
	mv	a3,a5
	li	a2,0
	li	a1,0
	lw	a0,-20(s0)
	call	sdram_command
	.loc 5 283 5
	li	a0,100
	call	sdram_udelay
	.loc 5 284 5
	li	a3,1024
	li	a2,0
	li	a1,12
	lw	a0,-20(s0)
	call	sdram_command
	.loc 5 285 5
	li	a0,100
	call	sdram_udelay
	.loc 5 286 5
	lw	a1,-20(s0)
	li	a0,1
	call	write_u32
	.loc 5 287 5
	li	a0,100
	call	sdram_udelay
	.loc 5 288 1
	nop
	lw	ra,44(sp)
	.cfi_restore 1
	lw	s0,40(sp)
	.cfi_restore 8
	addi	sp,sp,48
	.cfi_def_cfa_register 2
	jr	ra
	.cfi_endproc
.LFE35:
	.size	sdram_ddr3_init, .-sdram_ddr3_init
	.local	lfsr
	.comm	lfsr,2,2
	.section	.text.lfsrReset,"ax",@progbits
	.align	1
	.globl	lfsrReset
	.type	lfsrReset, @function
lfsrReset:
.LFB36:
	.loc 5 291 17
	.cfi_startproc
	addi	sp,sp,-16
	.cfi_def_cfa_offset 16
	sw	s0,12(sp)
	.cfi_offset 8, -4
	addi	s0,sp,16
	.cfi_def_cfa 8, 0
	.loc 5 292 10
	lui	a5,%hi(lfsr)
	li	a4,-20480
	addi	a4,a4,-799
	sh	a4,%lo(lfsr)(a5)
	.loc 5 293 1
	nop
	lw	s0,12(sp)
	.cfi_restore 8
	addi	sp,sp,16
	.cfi_def_cfa_register 2
	jr	ra
	.cfi_endproc
.LFE36:
	.size	lfsrReset, .-lfsrReset
	.section	.text.lfsr16,"ax",@progbits
	.align	1
	.type	lfsr16, @function
lfsr16:
.LFB37:
	.loc 5 296 24
	.cfi_startproc
	addi	sp,sp,-32
	.cfi_def_cfa_offset 32
	sw	s0,28(sp)
	.cfi_offset 8, -4
	addi	s0,sp,32
	.cfi_def_cfa 8, 0
	.loc 5 300 24
	lui	a5,%hi(lfsr)
	lhu	a5,%lo(lfsr)(a5)
	srli	a5,a5,2
	slli	a4,a5,16
	srli	a4,a4,16
	lui	a5,%hi(lfsr)
	lhu	a5,%lo(lfsr)(a5)
	xor	a5,a4,a5
	slli	a4,a5,16
	srli	a4,a4,16
	.loc 5 300 38
	lui	a5,%hi(lfsr)
	lhu	a5,%lo(lfsr)(a5)
	srli	a5,a5,3
	slli	a5,a5,16
	srli	a5,a5,16
	xor	a5,a4,a5
	slli	a4,a5,16
	srli	a4,a4,16
	.loc 5 300 52
	lui	a5,%hi(lfsr)
	lhu	a5,%lo(lfsr)(a5)
	srli	a5,a5,5
	slli	a5,a5,16
	srli	a5,a5,16
	.loc 5 300 9
	xor	a5,a4,a5
	sh	a5,-18(s0)
	.loc 5 301 24
	lui	a5,%hi(lfsr)
	lhu	a5,%lo(lfsr)(a5)
	srli	a5,a5,1
	slli	a5,a5,16
	srli	a5,a5,16
	slli	a4,a5,16
	srai	a4,a4,16
	.loc 5 301 31
	lhu	a5,-18(s0)
	slli	a5,a5,15
	.loc 5 301 24
	slli	a5,a5,16
	srai	a5,a5,16
	or	a5,a4,a5
	slli	a5,a5,16
	srai	a5,a5,16
	slli	a4,a5,16
	srli	a4,a4,16
	.loc 5 301 10
	lui	a5,%hi(lfsr)
	sh	a4,%lo(lfsr)(a5)
	.loc 5 303 12
	lui	a5,%hi(lfsr)
	lhu	a5,%lo(lfsr)(a5)
	.loc 5 304 1
	mv	a0,a5
	lw	s0,28(sp)
	.cfi_restore 8
	addi	sp,sp,32
	.cfi_def_cfa_register 2
	jr	ra
	.cfi_endproc
.LFE37:
	.size	lfsr16, .-lfsr16
	.section	.text.lfsr32,"ax",@progbits
	.align	1
	.type	lfsr32, @function
lfsr32:
.LFB38:
	.loc 5 306 24
	.cfi_startproc
	addi	sp,sp,-16
	.cfi_def_cfa_offset 16
	sw	ra,12(sp)
	sw	s0,8(sp)
	sw	s1,4(sp)
	.cfi_offset 1, -4
	.cfi_offset 8, -8
	.cfi_offset 9, -12
	addi	s0,sp,16
	.cfi_def_cfa 8, 0
	.loc 5 307 12
	call	lfsr16
	mv	a5,a0
	mv	s1,a5
	.loc 5 307 30
	call	lfsr16
	mv	a5,a0
	.loc 5 307 40
	slli	a5,a5,16
	.loc 5 307 21
	add	a5,s1,a5
	.loc 5 308 1
	mv	a0,a5
	lw	ra,12(sp)
	.cfi_restore 1
	lw	s0,8(sp)
	.cfi_restore 8
	lw	s1,4(sp)
	.cfi_restore 9
	addi	sp,sp,16
	.cfi_def_cfa_register 2
	jr	ra
	.cfi_endproc
.LFE38:
	.size	lfsr32, .-lfsr32
	.section	.text.sdram_mem_init,"ax",@progbits
	.align	1
	.type	sdram_mem_init, @function
sdram_mem_init:
.LFB39:
	.loc 5 310 51
	.cfi_startproc
	addi	sp,sp,-48
	.cfi_def_cfa_offset 48
	sw	ra,44(sp)
	sw	s0,40(sp)
	.cfi_offset 1, -4
	.cfi_offset 8, -8
	addi	s0,sp,48
	.cfi_def_cfa 8, 0
	sw	a0,-36(s0)
	sw	a1,-40(s0)
	.loc 5 311 5
	call	lfsrReset
.LBB4:
	.loc 5 312 13
	sw	zero,-20(s0)
	.loc 5 312 5
	j	.L69
.L70:
	.loc 5 313 9 discriminator 3
	call	lfsr32
	mv	a3,a0
	lw	a4,-36(s0)
	lw	a5,-20(s0)
	add	a5,a4,a5
	mv	a1,a5
	mv	a0,a3
	call	write_u32
	.loc 5 312 33 discriminator 3
	lw	a5,-20(s0)
	addi	a5,a5,4
	sw	a5,-20(s0)
.L69:
	.loc 5 312 5 discriminator 1
	lw	a4,-20(s0)
	lw	a5,-40(s0)
	bltu	a4,a5,.L70
.LBE4:
	.loc 5 315 1
	nop
	lw	ra,44(sp)
	.cfi_restore 1
	lw	s0,40(sp)
	.cfi_restore 8
	addi	sp,sp,48
	.cfi_def_cfa_register 2
	jr	ra
	.cfi_endproc
.LFE39:
	.size	sdram_mem_init, .-sdram_mem_init
	.section	.text.sdram_mem_test,"ax",@progbits
	.align	1
	.type	sdram_mem_test, @function
sdram_mem_test:
.LFB40:
	.loc 5 317 50
	.cfi_startproc
	addi	sp,sp,-48
	.cfi_def_cfa_offset 48
	sw	ra,44(sp)
	sw	s0,40(sp)
	sw	s1,36(sp)
	.cfi_offset 1, -4
	.cfi_offset 8, -8
	.cfi_offset 9, -12
	addi	s0,sp,48
	.cfi_def_cfa 8, 0
	sw	a0,-36(s0)
	sw	a1,-40(s0)
	.loc 5 318 9
	sw	zero,-24(s0)
	.loc 5 319 5
 #APP
# 319 "bsp/sdram.h" 1
	.word(0x500F)
# 0 "" 2
	.loc 5 320 5
 #NO_APP
	call	lfsrReset
.LBB5:
	.loc 5 321 13
	sw	zero,-20(s0)
	.loc 5 321 5
	j	.L72
.L75:
	.loc 5 322 12
	lw	a4,-36(s0)
	lw	a5,-20(s0)
	add	a5,a4,a5
	mv	a0,a5
	call	read_u32
	mv	s1,a0
	.loc 5 322 37
	call	lfsr32
	mv	a5,a0
	.loc 5 322 11
	beq	s1,a5,.L73
	.loc 5 322 54 discriminator 1
	li	a5,1
	j	.L74
.L73:
	.loc 5 321 33 discriminator 2
	lw	a5,-20(s0)
	addi	a5,a5,4
	sw	a5,-20(s0)
.L72:
	.loc 5 321 5 discriminator 1
	lw	a4,-20(s0)
	lw	a5,-40(s0)
	bltu	a4,a5,.L75
.LBE5:
	.loc 5 324 12
	li	a5,0
.L74:
	.loc 5 338 1
	mv	a0,a5
	lw	ra,44(sp)
	.cfi_restore 1
	lw	s0,40(sp)
	.cfi_restore 8
	lw	s1,36(sp)
	.cfi_restore 9
	addi	sp,sp,48
	.cfi_def_cfa_register 2
	jr	ra
	.cfi_endproc
.LFE40:
	.size	sdram_mem_test, .-sdram_mem_test
	.section	.text.sdram_phy_s7_scan,"ax",@progbits
	.align	1
	.type	sdram_phy_s7_scan, @function
sdram_phy_s7_scan:
.LFB41:
	.loc 5 342 57
	.cfi_startproc
	addi	sp,sp,-48
	.cfi_def_cfa_offset 48
	sw	ra,44(sp)
	sw	s0,40(sp)
	.cfi_offset 1, -4
	.cfi_offset 8, -8
	addi	s0,sp,48
	.cfi_def_cfa 8, 0
	sw	a0,-36(s0)
	sw	a1,-40(s0)
	sw	a2,-44(s0)
.LBB6:
	.loc 5 343 13
	sw	zero,-20(s0)
	.loc 5 343 5
	j	.L77
.L82:
	.loc 5 344 9
	lw	a4,-20(s0)
	lw	a5,-36(s0)
	addi	a5,a5,12
	mv	a1,a5
	mv	a0,a4
	call	write_u32
.LBB7:
	.loc 5 346 17
	sw	zero,-24(s0)
	.loc 5 346 9
	j	.L78
.L81:
	.loc 5 347 13
	lw	a5,-40(s0)
	addi	a5,a5,64
	mv	a1,a5
	li	a0,-1
	call	write_u32
	.loc 5 348 17
	li	a1,4096
	lw	a0,-44(s0)
	call	sdram_mem_test
	mv	a5,a0
	.loc 5 348 15
	bnez	a5,.L79
	.loc 5 348 53 discriminator 1
	li	a5,0
	j	.L80
.L79:
	.loc 5 346 52 discriminator 2
	lw	a5,-24(s0)
	addi	a5,a5,1
	sw	a5,-24(s0)
.L78:
	.loc 5 346 9 discriminator 1
	lw	a4,-24(s0)
	li	a5,7
	ble	a4,a5,.L81
.LBE7:
	.loc 5 343 56 discriminator 2
	lw	a5,-20(s0)
	addi	a5,a5,1
	sw	a5,-20(s0)
.L77:
	.loc 5 343 5 discriminator 1
	lw	a4,-20(s0)
	li	a5,3
	ble	a4,a5,.L82
.LBE6:
	.loc 5 351 12
	li	a5,1
.L80:
	.loc 5 352 1
	mv	a0,a5
	lw	ra,44(sp)
	.cfi_restore 1
	lw	s0,40(sp)
	.cfi_restore 8
	addi	sp,sp,48
	.cfi_def_cfa_register 2
	jr	ra
	.cfi_endproc
.LFE41:
	.size	sdram_phy_s7_scan, .-sdram_phy_s7_scan
	.section	.rodata
	.align	2
.LC0:
	.string	"\nS7 phy calibration\n"
	.align	2
.LC1:
	.string	"  DQ eye : "
	.align	2
.LC2:
	.string	"^\n"
	.section	.text.sdram_phy_s7,"ax",@progbits
	.align	1
	.type	sdram_phy_s7, @function
sdram_phy_s7:
.LFB42:
	.loc 5 354 53
	.cfi_startproc
	addi	sp,sp,-64
	.cfi_def_cfa_offset 64
	sw	ra,60(sp)
	sw	s0,56(sp)
	.cfi_offset 1, -4
	.cfi_offset 8, -8
	addi	s0,sp,64
	.cfi_def_cfa 8, 0
	sw	a0,-52(s0)
	sw	a1,-56(s0)
	sw	a2,-60(s0)
	.loc 5 355 5
	lui	a5,%hi(.LC0)
	addi	a1,a5,%lo(.LC0)
	li	a0,-268369920
	call	uart_writeStr
	.loc 5 357 5
	li	a1,4096
	lw	a0,-60(s0)
	call	sdram_mem_init
.L93:
.LBB8:
	.loc 5 360 9
	lui	a5,%hi(.LC1)
	addi	a1,a5,%lo(.LC1)
	li	a0,-268369920
	call	uart_writeStr
	.loc 5 362 13
	sw	zero,-20(s0)
	.loc 5 363 13
	sw	zero,-24(s0)
	.loc 5 364 13
	sw	zero,-28(s0)
.LBB9:
	.loc 5 365 17
	sw	zero,-32(s0)
	.loc 5 365 9
	j	.L84
.L88:
	.loc 5 366 13
	lw	a1,-56(s0)
	lw	a0,-32(s0)
	call	write_u32
	.loc 5 367 13
	lw	a5,-56(s0)
	addi	a5,a5,32
	mv	a1,a5
	li	a0,-1
	call	write_u32
	.loc 5 368 13
	lw	a5,-56(s0)
	addi	a5,a5,32
	mv	a1,a5
	li	a0,0
	call	write_u32
	.loc 5 369 17
	lw	a2,-60(s0)
	lw	a1,-56(s0)
	lw	a0,-52(s0)
	call	sdram_phy_s7_scan
	mv	a5,a0
	.loc 5 369 15
	bnez	a5,.L85
	.loc 5 370 17
	li	a1,88
	li	a0,-268369920
	call	uart_write
	.loc 5 371 29
	lw	a4,-32(s0)
	lw	a5,-20(s0)
	sub	a4,a4,a5
	.loc 5 371 57
	lw	a3,-28(s0)
	lw	a5,-24(s0)
	sub	a5,a3,a5
	.loc 5 371 19
	bleu	a4,a5,.L87
	.loc 5 372 36
	lw	a5,-20(s0)
	sw	a5,-24(s0)
	.loc 5 373 35
	lw	a5,-32(s0)
	sw	a5,-28(s0)
	j	.L87
.L85:
	.loc 5 376 17
	li	a1,46
	li	a0,-268369920
	call	uart_write
	.loc 5 377 27
	lw	a5,-32(s0)
	addi	a5,a5,1
	sw	a5,-20(s0)
.L87:
	.loc 5 365 54 discriminator 2
	lw	a5,-32(s0)
	addi	a5,a5,1
	sw	a5,-32(s0)
.L84:
	.loc 5 365 9 discriminator 1
	lw	a4,-32(s0)
	li	a5,63
	bleu	a4,a5,.L88
.LBE9:
	.loc 5 381 9
	li	a1,10
	li	a0,-268369920
	call	uart_write
	.loc 5 383 38
	lw	a4,-24(s0)
	lw	a5,-28(s0)
	add	a5,a4,a5
	.loc 5 383 13
	srli	a5,a5,1
	sw	a5,-40(s0)
.LBB10:
	.loc 5 384 17
	sw	zero,-36(s0)
	.loc 5 384 9
	j	.L89
.L90:
	.loc 5 384 44 discriminator 3
	li	a1,32
	li	a0,-268369920
	call	uart_write
	.loc 5 384 40 discriminator 3
	lw	a5,-36(s0)
	addi	a5,a5,1
	sw	a5,-36(s0)
.L89:
	.loc 5 384 30 discriminator 1
	lw	a5,-40(s0)
	addi	a5,a5,11
	.loc 5 384 9 discriminator 1
	lw	a4,-36(s0)
	bltu	a4,a5,.L90
.LBE10:
	.loc 5 385 9
	lui	a5,%hi(.LC2)
	addi	a1,a5,%lo(.LC2)
	li	a0,-268369920
	call	uart_writeStr
	.loc 5 387 9
	lw	a1,-56(s0)
	lw	a0,-40(s0)
	call	write_u32
	.loc 5 388 9
	lw	a5,-56(s0)
	addi	a5,a5,32
	mv	a1,a5
	li	a0,-1
	call	write_u32
	.loc 5 389 9
	lw	a5,-56(s0)
	addi	a5,a5,32
	mv	a1,a5
	li	a0,0
	call	write_u32
	.loc 5 390 13
	lw	a2,-60(s0)
	lw	a1,-56(s0)
	lw	a0,-52(s0)
	call	sdram_phy_s7_scan
	mv	a5,a0
	.loc 5 390 11
	beqz	a5,.L95
.LBE8:
	.loc 5 359 13
	j	.L93
.L95:
.LBB11:
	.loc 5 390 9
	nop
.LBE11:
	.loc 5 392 1
	nop
	lw	ra,60(sp)
	.cfi_restore 1
	lw	s0,56(sp)
	.cfi_restore 8
	addi	sp,sp,64
	.cfi_def_cfa_register 2
	jr	ra
	.cfi_endproc
.LFE42:
	.size	sdram_phy_s7, .-sdram_phy_s7
	.comm	_SYMTABLE,2048,4
	.section	.text.putcon,"ax",@progbits
	.align	1
	.globl	putcon
	.type	putcon, @function
putcon:
.LFB43:
	.file 6 "main.c"
	.loc 6 27 1
	.cfi_startproc
	addi	sp,sp,-32
	.cfi_def_cfa_offset 32
	sw	ra,28(sp)
	sw	s0,24(sp)
	.cfi_offset 1, -4
	.cfi_offset 8, -8
	addi	s0,sp,32
	.cfi_def_cfa 8, 0
	mv	a5,a0
	sb	a5,-17(s0)
	.loc 6 28 2
	lbu	a5,-17(s0)
	mv	a1,a5
	li	a0,-268369920
	call	uart_write
	.loc 6 29 1
	nop
	lw	ra,28(sp)
	.cfi_restore 1
	lw	s0,24(sp)
	.cfi_restore 8
	addi	sp,sp,32
	.cfi_def_cfa_register 2
	jr	ra
	.cfi_endproc
.LFE43:
	.size	putcon, .-putcon
	.section	.rodata
	.align	2
.LC3:
	.string	"*** SaxonSoc Booted...\n"
	.section	.text.main,"ax",@progbits
	.align	1
	.globl	main
	.type	main, @function
main:
.LFB44:
	.loc 6 32 1
	.cfi_startproc
	addi	sp,sp,-64
	.cfi_def_cfa_offset 64
	sw	ra,60(sp)
	sw	s0,56(sp)
	.cfi_offset 1, -4
	.cfi_offset 8, -8
	addi	s0,sp,64
	.cfi_def_cfa 8, 0
	.loc 6 43 5
	li	a1,1
	li	a0,-268435456
	call	gpio_setOutputEnable
	.loc 6 44 5
	li	a1,0
	li	a0,-268435456
	call	gpio_setOutput
	.loc 6 46 2
	lui	a5,%hi(.LC3)
	addi	a1,a5,%lo(.LC3)
	li	a0,-268369920
	call	uart_writeStr
	.loc 6 57 5
	lui	a5,%hi(MT48LC16M16A2_6A_ps)
	lw	t4,%lo(MT48LC16M16A2_6A_ps)(a5)
	addi	a4,a5,%lo(MT48LC16M16A2_6A_ps)
	lw	t3,4(a4)
	addi	a4,a5,%lo(MT48LC16M16A2_6A_ps)
	lw	t1,8(a4)
	addi	a4,a5,%lo(MT48LC16M16A2_6A_ps)
	lw	a7,12(a4)
	addi	a4,a5,%lo(MT48LC16M16A2_6A_ps)
	lw	a6,16(a4)
	addi	a4,a5,%lo(MT48LC16M16A2_6A_ps)
	lw	a0,20(a4)
	addi	a4,a5,%lo(MT48LC16M16A2_6A_ps)
	lw	a1,24(a4)
	addi	a4,a5,%lo(MT48LC16M16A2_6A_ps)
	lw	a2,28(a4)
	addi	a4,a5,%lo(MT48LC16M16A2_6A_ps)
	lw	a3,32(a4)
	addi	a4,a5,%lo(MT48LC16M16A2_6A_ps)
	lw	a4,36(a4)
	addi	a5,a5,%lo(MT48LC16M16A2_6A_ps)
	lw	a5,40(a5)
	sw	t4,-64(s0)
	sw	t3,-60(s0)
	sw	t1,-56(s0)
	sw	a7,-52(s0)
	sw	a6,-48(s0)
	sw	a0,-44(s0)
	sw	a1,-40(s0)
	sw	a2,-36(s0)
	sw	a3,-32(s0)
	sw	a4,-28(s0)
	sw	a5,-24(s0)
	addi	a3,s0,-64
	li	a5,20480
	addi	a6,a5,-480
	li	a5,2
	li	a4,1
	li	a2,0
	li	a1,3
	li	a0,-267386880
	call	sdram_init
	.loc 6 67 5
	li	a3,2
	li	a2,1
	li	a1,3
	li	a0,-267386880
	call	sdram_sdr_init
	.loc 6 94 12
	lui	a5,%hi(xfunc_out)
	lui	a4,%hi(putcon)
	addi	a4,a4,%lo(putcon)
	sw	a4,%lo(xfunc_out)(a5)
	.loc 6 126 2
	call	_main
	li	a5,0
	.loc 6 188 1
	mv	a0,a5
	lw	ra,60(sp)
	.cfi_restore 1
	lw	s0,56(sp)
	.cfi_restore 8
	addi	sp,sp,64
	.cfi_def_cfa_register 2
	jr	ra
	.cfi_endproc
.LFE44:
	.size	main, .-main
	.section	.rodata
	.align	2
	.type	wrToMr.2150, @object
	.size	wrToMr.2150, 12
wrToMr.2150:
	.byte	1
	.byte	2
	.byte	3
	.byte	4
	.byte	-1
	.byte	5
	.byte	-1
	.byte	6
	.byte	-1
	.byte	7
	.byte	-1
	.byte	0
	.align	2
	.type	rlToMr.2151, @object
	.size	rlToMr.2151, 10
rlToMr.2151:
	.byte	2
	.byte	4
	.byte	6
	.byte	8
	.byte	10
	.byte	12
	.byte	14
	.byte	1
	.byte	3
	.byte	5
	.text
.Letext0:
	.file 7 "c:\\gccriscv\\8.2.0\\riscv-none-embed\\include\\machine\\_default_types.h"
	.file 8 "c:\\gccriscv\\8.2.0\\riscv-none-embed\\include\\sys\\_stdint.h"
	.file 9 "c:\\gccriscv\\8.2.0\\riscv-none-embed\\include\\sys\\lock.h"
	.file 10 "c:\\gccriscv\\8.2.0\\riscv-none-embed\\include\\sys\\_types.h"
	.file 11 "c:\\gccriscv\\8.2.0\\lib\\gcc\\riscv-none-embed\\8.2.0\\include\\stddef.h"
	.file 12 "c:\\gccriscv\\8.2.0\\riscv-none-embed\\include\\sys\\reent.h"
	.file 13 "bsp/type.h"
	.file 14 "xprintf.h"
	.file 15 "symtable.h"