	.file	"uart.c"
	.option nopic
	.text
.Ltext0:
	.cfi_sections	.debug_frame
	.section	.rodata
	.align	2
	.type	vga_h800_v480_r60, @object
	.size	vga_h800_v480_r60, 32
vga_h800_v480_r60:
	.word	61
	.word	937
	.word	119
	.word	919
	.word	5
	.word	525
	.word	35
	.word	515
	.align	2
	.type	vga_h640_v480_r60, @object
	.size	vga_h640_v480_r60, 32
vga_h640_v480_r60:
	.word	96
	.word	800
	.word	112
	.word	752
	.word	2
	.word	525
	.word	12
	.word	492
	.align	2
	.type	vga_simRes, @object
	.size	vga_simRes, 32
vga_simRes:
	.word	8
	.word	70
	.word	16
	.word	64
	.word	2
	.word	48
	.word	8
	.word	40
	.align	2
	.type	vga_simRes_h160_v120, @object
	.size	vga_simRes_h160_v120, 32
vga_simRes_h160_v120:
	.word	8
	.word	184
	.word	16
	.word	176
	.word	2
	.word	130
	.word	6
	.word	126
	.section	.text.uart_writeAvailability,"ax",@progbits
	.align	1
	.globl	uart_writeAvailability
	.type	uart_writeAvailability, @function
uart_writeAvailability:
.LFB0:
	.file 1 "uart.c"
	.loc 1 5 47
	.cfi_startproc
	addi	sp,sp,-32
	.cfi_def_cfa_offset 32
	sw	s0,28(sp)
	.cfi_offset 8, -4
	addi	s0,sp,32
	.cfi_def_cfa 8, 0
	sw	a0,-20(s0)
	.loc 1 6 13
	lw	a5,-20(s0)
	lw	a5,4(a5)
	.loc 1 6 22
	srli	a5,a5,16
	.loc 1 6 29
	andi	a5,a5,255
	.loc 1 7 1
	mv	a0,a5
	lw	s0,28(sp)
	.cfi_restore 8
	addi	sp,sp,32
	.cfi_def_cfa_register 2
	jr	ra
	.cfi_endproc
.LFE0:
	.size	uart_writeAvailability, .-uart_writeAvailability
	.section	.text.uart_readOccupancy,"ax",@progbits
	.align	1
	.globl	uart_readOccupancy
	.type	uart_readOccupancy, @function
uart_readOccupancy:
.LFB1:
	.loc 1 9 43
	.cfi_startproc
	addi	sp,sp,-32
	.cfi_def_cfa_offset 32
	sw	s0,28(sp)
	.cfi_offset 8, -4
	addi	s0,sp,32
	.cfi_def_cfa 8, 0
	sw	a0,-20(s0)
	.loc 1 10 12
	lw	a5,-20(s0)
	lw	a5,4(a5)
	.loc 1 10 21
	srli	a5,a5,24
	.loc 1 11 1
	mv	a0,a5
	lw	s0,28(sp)
	.cfi_restore 8
	addi	sp,sp,32
	.cfi_def_cfa_register 2
	jr	ra
	.cfi_endproc
.LFE1:
	.size	uart_readOccupancy, .-uart_readOccupancy
	.section	.text.uart_write,"ax",@progbits
	.align	1
	.globl	uart_write
	.type	uart_write, @function
uart_write:
.LFB2:
	.loc 1 13 46
	.cfi_startproc
	addi	sp,sp,-32
	.cfi_def_cfa_offset 32
	sw	ra,28(sp)
	sw	s0,24(sp)
	.cfi_offset 1, -4
	.cfi_offset 8, -8
	addi	s0,sp,32
	.cfi_def_cfa 8, 0
	sw	a0,-20(s0)
	sw	a1,-24(s0)
	.loc 1 14 7
	nop
.L6:
	.loc 1 14 8 discriminator 1
	lw	a0,-20(s0)
	call	uart_writeAvailability
	mv	a5,a0
	.loc 1 14 7 discriminator 1
	beqz	a5,.L6
	.loc 1 15 12
	lw	a5,-20(s0)
	lw	a4,-24(s0)
	sw	a4,0(a5)
	.loc 1 16 1
	nop
	lw	ra,28(sp)
	.cfi_restore 1
	lw	s0,24(sp)
	.cfi_restore 8
	addi	sp,sp,32
	.cfi_def_cfa_register 2
	jr	ra
	.cfi_endproc
.LFE2:
	.size	uart_write, .-uart_write
	.section	.text.uart_read,"ax",@progbits
	.align	1
	.globl	uart_read
	.type	uart_read, @function
uart_read:
.LFB3:
	.loc 1 19 1
	.cfi_startproc
	addi	sp,sp,-48
	.cfi_def_cfa_offset 48
	sw	ra,44(sp)
	sw	s0,40(sp)
	.cfi_offset 1, -4
	.cfi_offset 8, -8
	addi	s0,sp,48
	.cfi_def_cfa 8, 0
	sw	a0,-36(s0)
	.loc 1 20 6
	lw	a0,-36(s0)
	call	uart_readOccupancy
	mv	a5,a0
	.loc 1 20 5
	beqz	a5,.L8
.LBB2:
	.loc 1 21 15
	lw	a5,-36(s0)
	lw	a5,0(a5)
	.loc 1 21 7
	andi	a5,a5,255
	sw	a5,-20(s0)
	.loc 1 22 10
	lw	a5,-20(s0)
	j	.L9
.L8:
.LBE2:
	.loc 1 24 10
	li	a5,-1
.L9:
	.loc 1 26 1
	mv	a0,a5
	lw	ra,44(sp)
	.cfi_restore 1
	lw	s0,40(sp)
	.cfi_restore 8
	addi	sp,sp,48
	.cfi_def_cfa_register 2
	jr	ra
	.cfi_endproc
.LFE3:
	.size	uart_read, .-uart_read
	.section	.text.uart_applyConfig,"ax",@progbits
	.align	1
	.globl	uart_applyConfig
	.type	uart_applyConfig, @function
uart_applyConfig:
.LFB4:
	.loc 1 28 58
	.cfi_startproc
	addi	sp,sp,-32
	.cfi_def_cfa_offset 32
	sw	s0,28(sp)
	.cfi_offset 8, -4
	addi	s0,sp,32
	.cfi_def_cfa 8, 0
	sw	a0,-20(s0)
	sw	a1,-24(s0)
	.loc 1 29 29
	lw	a5,-24(s0)
	lw	a4,12(a5)
	.loc 1 29 21
	lw	a5,-20(s0)
	sw	a4,8(a5)
	.loc 1 30 30
	lw	a5,-24(s0)
	lw	a5,0(a5)
	.loc 1 30 46
	addi	a4,a5,-1
	.loc 1 30 61
	lw	a5,-24(s0)
	lw	a5,4(a5)
	.loc 1 30 70
	slli	a5,a5,8
	.loc 1 30 52
	or	a4,a4,a5
	.loc 1 30 85
	lw	a5,-24(s0)
	lw	a5,8(a5)
	.loc 1 30 92
	slli	a5,a5,16
	.loc 1 30 76
	or	a4,a4,a5
	.loc 1 30 20
	lw	a5,-20(s0)
	sw	a4,12(a5)
	.loc 1 31 1
	nop
	lw	s0,28(sp)
	.cfi_restore 8
	addi	sp,sp,32
	.cfi_def_cfa_register 2
	jr	ra
	.cfi_endproc
.LFE4:
	.size	uart_applyConfig, .-uart_applyConfig
	.section	.text.uart_init,"ax",@progbits
	.align	1
	.globl	uart_init
	.type	uart_init, @function
uart_init:
.LFB5:
	.loc 1 34 1
	.cfi_startproc
	addi	sp,sp,-32
	.cfi_def_cfa_offset 32
	sw	ra,28(sp)
	sw	s0,24(sp)
	.cfi_offset 1, -4
	.cfi_offset 8, -8
	addi	s0,sp,32
	.cfi_def_cfa 8, 0
	.loc 1 37 24
	li	a5,8
	sw	a5,-32(s0)
	.loc 1 38 20
	sw	zero,-28(s0)
	.loc 1 39 18
	sw	zero,-24(s0)
	.loc 1 40 26
	li	a5,53
	sw	a5,-20(s0)
	.loc 1 41 2
	addi	a5,s0,-32
	mv	a1,a5
	li	a0,-268369920
	call	uart_applyConfig
	.loc 1 42 1
	nop
	lw	ra,28(sp)
	.cfi_restore 1
	lw	s0,24(sp)
	.cfi_restore 8
	addi	sp,sp,32
	.cfi_def_cfa_register 2
	jr	ra
	.cfi_endproc
.LFE5:
	.size	uart_init, .-uart_init
	.section	.text.uart_pollrx,"ax",@progbits
	.align	1
	.globl	uart_pollrx
	.type	uart_pollrx, @function
uart_pollrx:
.LFB6:
	.loc 1 45 1
	.cfi_startproc
	addi	sp,sp,-16
	.cfi_def_cfa_offset 16
	sw	s0,12(sp)
	.cfi_offset 8, -4
	addi	s0,sp,16
	.cfi_def_cfa 8, 0
	.loc 1 46 1
	nop
	lw	s0,12(sp)
	.cfi_restore 8
	addi	sp,sp,16
	.cfi_def_cfa_register 2
	jr	ra
	.cfi_endproc
.LFE6:
	.size	uart_pollrx, .-uart_pollrx
	.section	.text.uart_polltx,"ax",@progbits
	.align	1
	.globl	uart_polltx
	.type	uart_polltx, @function
uart_polltx:
.LFB7:
	.loc 1 49 1
	.cfi_startproc
	addi	sp,sp,-16
	.cfi_def_cfa_offset 16
	sw	s0,12(sp)
	.cfi_offset 8, -4
	addi	s0,sp,16
	.cfi_def_cfa 8, 0
	.loc 1 50 1
	nop
	lw	s0,12(sp)
	.cfi_restore 8
	addi	sp,sp,16
	.cfi_def_cfa_register 2
	jr	ra
	.cfi_endproc
.LFE7:
	.size	uart_polltx, .-uart_polltx
	.section	.text.uart_getc,"ax",@progbits
	.align	1
	.globl	uart_getc
	.type	uart_getc, @function
uart_getc:
.LFB8:
	.loc 1 53 1
	.cfi_startproc
	addi	sp,sp,-16
	.cfi_def_cfa_offset 16
	sw	ra,12(sp)
	sw	s0,8(sp)
	.cfi_offset 1, -4
	.cfi_offset 8, -8
	addi	s0,sp,16
	.cfi_def_cfa 8, 0
	.loc 1 54 9
	li	a0,-268369920
	call	uart_read
	mv	a5,a0
	.loc 1 55 1
	mv	a0,a5
	lw	ra,12(sp)
	.cfi_restore 1
	lw	s0,8(sp)
	.cfi_restore 8
	addi	sp,sp,16
	.cfi_def_cfa_register 2
	jr	ra
	.cfi_endproc
.LFE8:
	.size	uart_getc, .-uart_getc
	.section	.text.uart_putc,"ax",@progbits
	.align	1
	.globl	uart_putc
	.type	uart_putc, @function
uart_putc:
.LFB9:
	.loc 1 58 1
	.cfi_startproc
	addi	sp,sp,-32
	.cfi_def_cfa_offset 32
	sw	ra,28(sp)
	sw	s0,24(sp)
	.cfi_offset 1, -4
	.cfi_offset 8, -8
	addi	s0,sp,32
	.cfi_def_cfa 8, 0
	mv	a5,a0
	sb	a5,-17(s0)
	.loc 1 59 7
	nop
.L17:
	.loc 1 59 8 discriminator 1
	li	a0,-268369920
	call	uart_writeAvailability
	mv	a5,a0
	.loc 1 59 7 discriminator 1
	beqz	a5,.L17
	.loc 1 60 27
	li	a5,-268369920
	.loc 1 60 34
	lbu	a4,-17(s0)
	sw	a4,0(a5)
	.loc 1 61 9
	li	a5,0
	.loc 1 62 1
	mv	a0,a5
	lw	ra,28(sp)
	.cfi_restore 1
	lw	s0,24(sp)
	.cfi_restore 8
	addi	sp,sp,32
	.cfi_def_cfa_register 2
	jr	ra
	.cfi_endproc
.LFE9:
	.size	uart_putc, .-uart_putc
	.section	.text.uart_puts,"ax",@progbits
	.align	1
	.globl	uart_puts
	.type	uart_puts, @function
uart_puts:
.LFB10:
	.loc 1 66 1
	.cfi_startproc
	addi	sp,sp,-48
	.cfi_def_cfa_offset 48
	sw	ra,44(sp)
	sw	s0,40(sp)
	.cfi_offset 1, -4
	.cfi_offset 8, -8
	addi	s0,sp,48
	.cfi_def_cfa 8, 0
	sw	a0,-36(s0)
	.loc 1 69 8
	j	.L20
.L23:
	.loc 1 70 9
	lbu	a5,-17(s0)
	mv	a0,a5
	call	uart_putc
	mv	a5,a0
	.loc 1 70 8
	beqz	a5,.L21
	.loc 1 71 14
	li	a5,255
	j	.L22
.L21:
	.loc 1 73 6
	lw	a5,-36(s0)
	addi	a5,a5,1
	sw	a5,-36(s0)
.L20:
	.loc 1 69 12
	lw	a5,-36(s0)
	lbu	a5,0(a5)
	sb	a5,-17(s0)
	.loc 1 69 8
	lbu	a5,-17(s0)
	bnez	a5,.L23
	.loc 1 75 10
	li	a5,0
.L22:
	.loc 1 76 1
	mv	a0,a5
	lw	ra,44(sp)
	.cfi_restore 1
	lw	s0,40(sp)
	.cfi_restore 8
	addi	sp,sp,48
	.cfi_def_cfa_register 2
	jr	ra
	.cfi_endproc
.LFE10:
	.size	uart_puts, .-uart_puts
	.section	.text._uart_wait,"ax",@progbits
	.align	1
	.globl	_uart_wait
	.type	_uart_wait, @function
_uart_wait:
.LFB11:
	.loc 1 79 1
	.cfi_startproc
	addi	sp,sp,-16
	.cfi_def_cfa_offset 16
	sw	ra,12(sp)
	sw	s0,8(sp)
	.cfi_offset 1, -4
	.cfi_offset 8, -8
	addi	s0,sp,16
	.cfi_def_cfa 8, 0
	.loc 1 80 7
	nop
.L25:
	.loc 1 80 8 discriminator 1
	li	a0,-268369920
	call	uart_writeAvailability
	mv	a5,a0
	.loc 1 80 7 discriminator 1
	beqz	a5,.L25
	.loc 1 81 1
	nop
	lw	ra,12(sp)
	.cfi_restore 1
	lw	s0,8(sp)
	.cfi_restore 8
	addi	sp,sp,16
	.cfi_def_cfa_register 2
	jr	ra
	.cfi_endproc
.LFE11:
	.size	_uart_wait, .-_uart_wait
	.text
.Letext0:
	.file 2 "c:\\gccriscv\\8.2.0\\riscv-none-embed\\include\\machine\\_default_types.h"
	.file 3 "c:\\gccriscv\\8.2.0\\riscv-none-embed\\include\\sys\\_stdint.h"
	.file 4 "murax.h"