	.file	"vga.c"
	.option nopic
	.text
.Ltext0:
	.cfi_sections	.debug_frame
	.section	.rodata
	.align	2
	.type	vga_h800_v480_r60, @object
	.size	vga_h800_v480_r60, 32
vga_h800_v480_r60:
	.word	61
	.word	937
	.word	119
	.word	919
	.word	5
	.word	525
	.word	35
	.word	515
	.align	2
	.type	vga_h640_v480_r60, @object
	.size	vga_h640_v480_r60, 32
vga_h640_v480_r60:
	.word	96
	.word	800
	.word	112
	.word	752
	.word	2
	.word	525
	.word	12
	.word	492
	.align	2
	.type	vga_simRes, @object
	.size	vga_simRes, 32
vga_simRes:
	.word	8
	.word	70
	.word	16
	.word	64
	.word	2
	.word	48
	.word	8
	.word	40
	.align	2
	.type	vga_simRes_h160_v120, @object
	.size	vga_simRes_h160_v120, 32
vga_simRes_h160_v120:
	.word	8
	.word	184
	.word	16
	.word	176
	.word	2
	.word	130
	.word	6
	.word	126
	.section	.text.vga_init,"ax",@progbits
	.align	1
	.globl	vga_init
	.type	vga_init, @function
vga_init:
.LFB0:
	.file 1 "vga.c"
	.loc 1 10 1
	.cfi_startproc
	addi	sp,sp,-16
	.cfi_def_cfa_offset 16
	sw	ra,12(sp)
	sw	s0,8(sp)
	.cfi_offset 1, -4
	.cfi_offset 8, -8
	addi	s0,sp,16
	.cfi_def_cfa 8, 0
	.loc 1 11 5
	li	a0,-268238848
	call	vga_stop
	.loc 1 12 29
	li	a5,-268238848
	.loc 1 12 38
	lui	a4,%hi(vga_h800_v480_r60)
	lw	t1,%lo(vga_h800_v480_r60)(a4)
	addi	a3,a4,%lo(vga_h800_v480_r60)
	lw	a7,4(a3)
	addi	a3,a4,%lo(vga_h800_v480_r60)
	lw	a6,8(a3)
	addi	a3,a4,%lo(vga_h800_v480_r60)
	lw	a0,12(a3)
	addi	a3,a4,%lo(vga_h800_v480_r60)
	lw	a1,16(a3)
	addi	a3,a4,%lo(vga_h800_v480_r60)
	lw	a2,20(a3)
	addi	a3,a4,%lo(vga_h800_v480_r60)
	lw	a3,24(a3)
	addi	a4,a4,%lo(vga_h800_v480_r60)
	lw	a4,28(a4)
	sw	t1,64(a5)
	sw	a7,68(a5)
	sw	a6,72(a5)
	sw	a0,76(a5)
	sw	a1,80(a5)
	sw	a2,84(a5)
	sw	a3,88(a5)
	sw	a4,92(a5)
	.loc 1 13 29
	li	a5,-268238848
	.loc 1 13 42
	li	a4,765952
	addi	a4,a4,2047
	sw	a4,4(a5)
	.loc 1 14 29
	li	a5,-268238848
	.loc 1 14 42
	li	a4,1073741824
	sw	a4,8(a5)
	.loc 1 15 5
	li	a0,-268238848
	call	vga_run
	.loc 1 16 1
	nop
	lw	ra,12(sp)
	.cfi_restore 1
	lw	s0,8(sp)
	.cfi_restore 8
	addi	sp,sp,16
	.cfi_def_cfa_register 2
	jr	ra
	.cfi_endproc
.LFE0:
	.size	vga_init, .-vga_init
	.section	.text.vga_clear,"ax",@progbits
	.align	1
	.globl	vga_clear
	.type	vga_clear, @function
vga_clear:
.LFB1:
	.loc 1 19 1
	.cfi_startproc
	addi	sp,sp,-32
	.cfi_def_cfa_offset 32
	sw	s0,28(sp)
	.cfi_offset 8, -4
	addi	s0,sp,32
	.cfi_def_cfa 8, 0
	.loc 1 21 12
	li	a5,1073741824
	sw	a5,-20(s0)
.LBB2:
	.loc 1 22 15
	sw	zero,-24(s0)
	.loc 1 22 2
	j	.L3
.L6:
.LBB3:
	.loc 1 23 16
	sw	zero,-28(s0)
	.loc 1 23 3
	j	.L4
.L5:
	.loc 1 24 8 discriminator 3
	lw	a5,-20(s0)
	addi	a4,a5,4
	sw	a4,-20(s0)
	.loc 1 24 11 discriminator 3
	sw	zero,0(a5)
	.loc 1 23 35 discriminator 3
	lw	a5,-28(s0)
	addi	a5,a5,1
	sw	a5,-28(s0)
.L4:
	.loc 1 23 3 discriminator 1
	lw	a4,-28(s0)
	li	a5,399
	bleu	a4,a5,.L5
.LBE3:
	.loc 1 22 32 discriminator 2
	lw	a5,-24(s0)
	addi	a5,a5,1
	sw	a5,-24(s0)
.L3:
	.loc 1 22 2 discriminator 1
	lw	a4,-24(s0)
	li	a5,479
	bleu	a4,a5,.L6
.LBE2:
	.loc 1 27 1
	nop
	lw	s0,28(sp)
	.cfi_restore 8
	addi	sp,sp,32
	.cfi_def_cfa_register 2
	jr	ra
	.cfi_endproc
.LFE1:
	.size	vga_clear, .-vga_clear
	.section	.text.vga_isBusy,"ax",@progbits
	.align	1
	.globl	vga_isBusy
	.type	vga_isBusy, @function
vga_isBusy:
.LFB2:
	.loc 1 30 34
	.cfi_startproc
	addi	sp,sp,-32
	.cfi_def_cfa_offset 32
	sw	s0,28(sp)
	.cfi_offset 8, -4
	addi	s0,sp,32
	.cfi_def_cfa 8, 0
	sw	a0,-20(s0)
	.loc 1 31 13
	lw	a5,-20(s0)
	lw	a5,0(a5)
	.loc 1 31 22
	andi	a5,a5,2
	.loc 1 31 27
	snez	a5,a5
	andi	a5,a5,0xff
	.loc 1 32 1
	mv	a0,a5
	lw	s0,28(sp)
	.cfi_restore 8
	addi	sp,sp,32
	.cfi_def_cfa_register 2
	jr	ra
	.cfi_endproc
.LFE2:
	.size	vga_isBusy, .-vga_isBusy
	.section	.text.vga_run,"ax",@progbits
	.align	1
	.globl	vga_run
	.type	vga_run, @function
vga_run:
.LFB3:
	.loc 1 34 27
	.cfi_startproc
	addi	sp,sp,-32
	.cfi_def_cfa_offset 32
	sw	s0,28(sp)
	.cfi_offset 8, -4
	addi	s0,sp,32
	.cfi_def_cfa 8, 0
	sw	a0,-20(s0)
	.loc 1 35 14
	lw	a5,-20(s0)
	li	a4,1
	sw	a4,0(a5)
	.loc 1 36 1
	nop
	lw	s0,28(sp)
	.cfi_restore 8
	addi	sp,sp,32
	.cfi_def_cfa_register 2
	jr	ra
	.cfi_endproc
.LFE3:
	.size	vga_run, .-vga_run
	.section	.text.vga_stop,"ax",@progbits
	.align	1
	.globl	vga_stop
	.type	vga_stop, @function
vga_stop:
.LFB4:
	.loc 1 38 28
	.cfi_startproc
	addi	sp,sp,-32
	.cfi_def_cfa_offset 32
	sw	ra,28(sp)
	sw	s0,24(sp)
	.cfi_offset 1, -4
	.cfi_offset 8, -8
	addi	s0,sp,32
	.cfi_def_cfa 8, 0
	sw	a0,-20(s0)
	.loc 1 39 14
	lw	a5,-20(s0)
	sw	zero,0(a5)
	.loc 1 40 7
	nop
.L11:
	.loc 1 40 8 discriminator 1
	lw	a0,-20(s0)
	call	vga_isBusy
	mv	a5,a0
	.loc 1 40 7 discriminator 1
	bnez	a5,.L11
	.loc 1 41 1
	nop
	lw	ra,28(sp)
	.cfi_restore 1
	lw	s0,24(sp)
	.cfi_restore 8
	addi	sp,sp,32
	.cfi_def_cfa_register 2
	jr	ra
	.cfi_endproc
.LFE4:
	.size	vga_stop, .-vga_stop
	.text
.Letext0:
	.file 2 "c:\\gccriscv\\8.2.0\\riscv-none-embed\\include\\machine\\_default_types.h"
	.file 3 "c:\\gccriscv\\8.2.0\\riscv-none-embed\\include\\sys\\_stdint.h"
	.file 4 "murax.h"